;
; File generated by cc65 v 2.18 - Git dc4142e
;
	.fopt		compiler,"cc65 v 2.18 - Git dc4142e"
	.setcpu		"6502"
	.smart		on
	.autoimport	on
	.case		on
	.debuginfo	on
	.importzp	sp, sreg, regsave, regbank
	.importzp	tmp1, tmp2, tmp3, tmp4, ptr1, ptr2, ptr3, ptr4
	.macpack	longbranch
	.dbg		file, "main.c", 97942, 1609630089
	.dbg		file, "LIB/neslib.h", 9361, 1608948989
	.dbg		file, "LIB/nesdoug.h", 6862, 1608948989
	.dbg		file, "BG/game_area.h", 4039, 1608948989
	.dbg		file, "BG/title_screen.h", 2757, 1608948989
	.dbg		file, "BG/boot_screen.h", 1280, 1608948989
	.dbg		file, "BG/options_screen.h", 2359, 1608948989
	.dbg		file, "BG/sound_screen.h", 1418, 1608948989
	.dbg		file, "BG/ty_screen.h", 1872, 1608948989
	.dbg		file, "../include/stdlib.h", 6147, 1608948990
	.dbg		file, "main.h", 26408, 1609630048
	.forceimport	__STARTUP__
	.dbg		sym, "pal_bg", "00", extern, "_pal_bg"
	.dbg		sym, "pal_spr", "00", extern, "_pal_spr"
	.dbg		sym, "pal_bright", "00", extern, "_pal_bright"
	.dbg		sym, "ppu_wait_nmi", "00", extern, "_ppu_wait_nmi"
	.dbg		sym, "ppu_off", "00", extern, "_ppu_off"
	.dbg		sym, "ppu_on_all", "00", extern, "_ppu_on_all"
	.dbg		sym, "oam_clear", "00", extern, "_oam_clear"
	.dbg		sym, "oam_spr", "00", extern, "_oam_spr"
	.dbg		sym, "oam_meta_spr", "00", extern, "_oam_meta_spr"
	.dbg		sym, "oam_set", "00", extern, "_oam_set"
	.dbg		sym, "music_play", "00", extern, "_music_play"
	.dbg		sym, "music_stop", "00", extern, "_music_stop"
	.dbg		sym, "music_pause", "00", extern, "_music_pause"
	.dbg		sym, "sfx_play", "00", extern, "_sfx_play"
	.dbg		sym, "pad_poll", "00", extern, "_pad_poll"
	.dbg		sym, "scroll", "00", extern, "_scroll"
	.dbg		sym, "bank_spr", "00", extern, "_bank_spr"
	.dbg		sym, "vram_adr", "00", extern, "_vram_adr"
	.dbg		sym, "vram_fill", "00", extern, "_vram_fill"
	.dbg		sym, "vram_unrle", "00", extern, "_vram_unrle"
	.dbg		sym, "memcpy", "00", extern, "_memcpy"
	.dbg		sym, "memfill", "00", extern, "_memfill"
	.dbg		sym, "delay", "00", extern, "_delay"
	.dbg		sym, "set_vram_buffer", "00", extern, "_set_vram_buffer"
	.dbg		sym, "one_vram_buffer", "00", extern, "_one_vram_buffer"
	.dbg		sym, "multi_vram_buffer_horz", "00", extern, "_multi_vram_buffer_horz"
	.dbg		sym, "multi_vram_buffer_vert", "00", extern, "_multi_vram_buffer_vert"
	.dbg		sym, "clear_vram_buffer", "00", extern, "_clear_vram_buffer"
	.dbg		sym, "get_pad_new", "00", extern, "_get_pad_new"
	.dbg		sym, "get_ppu_addr", "00", extern, "_get_ppu_addr"
	.dbg		sym, "rand", "00", extern, "_rand"
	.dbg		sym, "srand", "00", extern, "_srand"
	.import		_pal_bg
	.import		_pal_spr
	.import		_pal_bright
	.import		_ppu_wait_nmi
	.import		_ppu_off
	.import		_ppu_on_all
	.import		_oam_clear
	.import		_oam_spr
	.import		_oam_meta_spr
	.import		_oam_set
	.import		_music_play
	.import		_music_stop
	.import		_music_pause
	.import		_sfx_play
	.import		_pad_poll
	.import		_scroll
	.import		_bank_spr
	.import		_vram_adr
	.import		_vram_fill
	.import		_vram_unrle
	.import		_memcpy
	.import		_memfill
	.import		_delay
	.import		_set_vram_buffer
	.import		_one_vram_buffer
	.import		_multi_vram_buffer_horz
	.import		_multi_vram_buffer_vert
	.import		_clear_vram_buffer
	.import		_get_pad_new
	.import		_get_ppu_addr
	.export		_game_area
	.export		_title_screen
	.export		_boot_screen
	.export		_options_screen
	.export		_sound_screen
	.export		_ty_screen
	.import		_rand
	.import		_srand
	.export		_tick_count
	.export		_tick_count_large
	.export		_ticks_in_state_large
	.export		_hit_reaction_remaining
	.export		_attack_queue_ticks_remaining
	.export		_attack_delay
	.export		_pad_all
	.export		_pad_all_new
	.export		_pad1
	.export		_pad1_new
	.export		_pad2
	.export		_pad2_new
	.export		_scroll_y
	.export		_cur_option
	.export		_attack_style
	.export		_high_scores
	.export		_music_on
	.export		_sfx_on
	.export		_block_style
	.export		_starting_levels
	.export		_saved_starting_level
	.export		_hard_drops_on
	.export		_hard_drop_hold_remaining
	.export		_hard_drop_tap_required
	.export		_state
	.export		_konami_code
	.export		_cur_konami_index
	.export		_cur_block
	.export		_fall_rate
	.export		_cur_level
	.export		_def_line
	.export		_def_square
	.export		_def_L_rev
	.export		_def_L
	.export		_def_S
	.export		_def_Z
	.export		_def_T
	.export		_cluster_defs_classic
	.export		_bag
	.export		_bag_index
	.export		_randomize_bag
	.export		_swap
	.export		_cur_rot
	.export		_srs_non_line_rotate_lookup
	.export		_srs_line_rotate_lookup
	.export		_cur_cluster
	.export		_next_cluster
	.export		_attack_row_status
	.export		_cluster_sprites
	.export		_cluster_offsets
	.export		_horz_button_delay
	.export		_button_delay
	.export		_require_new_down_button
	.export		_fall_frame_counter
	.export		_lines_cleared_one
	.export		_lines_cleared_ten
	.export		_lines_cleared_hundred
	.export		_cur_score
	.export		_cur_nt
	.export		_off_nt
	.export		_hit
	.export		_temp_fall_frame_counter
	.export		_old_x
	.export		_id
	.export		_min_y
	.export		_max_y
	.export		_in_x
	.export		_in_y
	.export		_in_id
	.export		_local_start_x
	.export		_local_start_y
	.export		_local_ix
	.export		_local_iy
	.export		_local_t
	.export		_local_bit
	.export		_local_row_status
	.export		_OOB_TOP
	.export		_test_song
	.export		_test_song_active
	.export		_test_sound
	.export		_cur_gameplay_music
	.export		_attack_queued
	.export		_tentacle_offsets
	.export		_garbage_types
	.export		_cur_garbage_type
	.export		_delay_lock_remaining
	.export		_delay_lock_skip
	.export		_delay_spawn_remaining
	.export		_spawn_queued
	.export		_row_to_clear
	.export		_kill_row_cur
	.export		_kill_row_queued
	.export		_start_delay_remaining
	.export		_board_lookup_y
	.export		_mask
	.export		_address
	.export		_time_of_day
	.export		_temp_pal
	.export		_lines_cleared_y
	.export		_line_score_mod
	.export		_game_board
	.export		_game_board_temp
	.export		_empty_row
	.export		_full_row
	.export		_full_col
	.export		_option_empty
	.export		_option_icon
	.export		_copy_board_data
	.export		_palette_bg
	.export		_palette_sp
	.export		_palette_bg_options
	.export		_palette_bg_list
	.export		_fall_rates_per_level
	.export		_attack_style_strings
	.export		_off_on_string
	.export		_block_style_strings
	.export		_hard_drop_types
	.export		_screen_shake_remaining
	.export		_text_push_start
	.export		_clear_push_start
	.export		_metasprite_tentacle_title
	.export		_draw_menu_sprites
	.export		_draw_gameplay_sprites
	.export		_movement
	.export		_set_block
	.export		_set_block_nt
	.export		_clear_block
	.export		_put_cur_cluster
	.export		_is_cluster_colliding
	.export		_morton_compact_one_by_one
	.export		_spawn_new_cluster
	.export		_rotate_cur_cluster
	.export		_check_tspin
	.export		_is_tspin
	.export		_is_last_rotate
	.export		_rotate_srs
	.export		_go_to_state
	.export		_inc_lines_cleared
	.export		_display_lines_cleared
	.export		_display_score
	.export		_display_highscore
	.export		_display_level
	.export		_clear_rows_in_data
	.export		_reveal_empty_rows_to_nt
	.export		_try_collapse_empty_row_data
	.export		_copy_board_to_nt
	.export		_add_block_at_bottom
	.export		_add_row_at_bottom
	.export		_reset_gameplay_area
	.export		_display_song
	.export		_display_sound
	.export		_display_options
	.export		_fade_to_black
	.export		_fade_from_black
	.export		_difficulty_to_leaderboard_pos
	.export		_debug_fill_nametables
	.export		_debug_draw_board_area
	.export		_debug_copy_board_data_to_nt
	.export		_debug_display_number
	.export		_main
	.export		_is_block_full

.segment	"DATA"

_high_scores:
	.dword	$00000000
	.dword	$00000000
	.dword	$00000000
_state:
	.byte	$00
_cur_block:
	.byte	$00
	.byte	$00
_fall_rate:
	.byte	$30
_cur_level:
	.byte	$00
_cluster_defs_classic:
	.addr	_def_Z
	.addr	_def_S
	.addr	_def_line
	.addr	_def_square
	.addr	_def_T
	.addr	_def_L
	.addr	_def_L_rev
_bag:
	.byte	$00
	.byte	$01
	.byte	$02
	.byte	$03
	.byte	$04
	.byte	$05
	.byte	$06
_bag_index:
	.byte	$00

.segment	"RODATA"

_game_area:
	.byte	$09
	.byte	$15
	.byte	$16
	.byte	$17
	.byte	$18
	.byte	$08
	.byte	$09
	.byte	$05
	.byte	$BF
	.byte	$14
	.byte	$01
	.byte	$12
	.byte	$09
	.byte	$07
	.byte	$01
	.byte	$11
	.byte	$BF
	.byte	$08
	.byte	$09
	.byte	$0F
	.byte	$8B
	.byte	$08
	.byte	$CF
	.byte	$14
	.byte	$AE
	.byte	$AF
	.byte	$B7
	.byte	$00
	.byte	$09
	.byte	$03
	.byte	$B8
	.byte	$AF
	.byte	$AE
	.byte	$11
	.byte	$CF
	.byte	$8B
	.byte	$08
	.byte	$09
	.byte	$08
	.byte	$4C
	.byte	$49
	.byte	$4E
	.byte	$45
	.byte	$53
	.byte	$08
	.byte	$97
	.byte	$98
	.byte	$09
	.byte	$02
	.byte	$BE
	.byte	$BF
	.byte	$00
	.byte	$09
	.byte	$05
	.byte	$BF
	.byte	$BE
	.byte	$A8
	.byte	$98
	.byte	$98
	.byte	$99
	.byte	$08
	.byte	$09
	.byte	$09
	.byte	$30
	.byte	$09
	.byte	$02
	.byte	$08
	.byte	$A7
	.byte	$98
	.byte	$09
	.byte	$02
	.byte	$CE
	.byte	$CF
	.byte	$00
	.byte	$09
	.byte	$05
	.byte	$CF
	.byte	$CE
	.byte	$A8
	.byte	$98
	.byte	$98
	.byte	$A9
	.byte	$08
	.byte	$09
	.byte	$0D
	.byte	$01
	.byte	$02
	.byte	$03
	.byte	$04
	.byte	$01
	.byte	$12
	.byte	$C7
	.byte	$00
	.byte	$09
	.byte	$03
	.byte	$C8
	.byte	$12
	.byte	$12
	.byte	$11
	.byte	$03
	.byte	$02
	.byte	$04
	.byte	$6E
	.byte	$6F
	.byte	$08
	.byte	$09
	.byte	$05
	.byte	$53
	.byte	$43
	.byte	$4F
	.byte	$52
	.byte	$45
	.byte	$08
	.byte	$AE
	.byte	$AF
	.byte	$AE
	.byte	$12
	.byte	$01
	.byte	$12
	.byte	$11
	.byte	$12
	.byte	$09
	.byte	$03
	.byte	$04
	.byte	$12
	.byte	$12
	.byte	$11
	.byte	$AE
	.byte	$AF
	.byte	$AE
	.byte	$7E
	.byte	$7F
	.byte	$08
	.byte	$09
	.byte	$05
	.byte	$30
	.byte	$09
	.byte	$04
	.byte	$08
	.byte	$BE
	.byte	$BF
	.byte	$BE
	.byte	$14
	.byte	$00
	.byte	$09
	.byte	$09
	.byte	$11
	.byte	$BE
	.byte	$BF
	.byte	$BE
	.byte	$8E
	.byte	$8F
	.byte	$08
	.byte	$09
	.byte	$0B
	.byte	$CE
	.byte	$CF
	.byte	$CE
	.byte	$14
	.byte	$00
	.byte	$09
	.byte	$09
	.byte	$11
	.byte	$CE
	.byte	$CF
	.byte	$CE
	.byte	$9E
	.byte	$9F
	.byte	$08
	.byte	$08
	.byte	$06
	.byte	$07
	.byte	$08
	.byte	$08
	.byte	$4C
	.byte	$45
	.byte	$56
	.byte	$45
	.byte	$4C
	.byte	$08
	.byte	$01
	.byte	$01
	.byte	$12
	.byte	$14
	.byte	$00
	.byte	$09
	.byte	$09
	.byte	$11
	.byte	$01
	.byte	$12
	.byte	$03
	.byte	$8C
	.byte	$8D
	.byte	$08
	.byte	$15
	.byte	$16
	.byte	$17
	.byte	$78
	.byte	$79
	.byte	$08
	.byte	$09
	.byte	$02
	.byte	$30
	.byte	$30
	.byte	$08
	.byte	$01
	.byte	$12
	.byte	$14
	.byte	$13
	.byte	$00
	.byte	$09
	.byte	$09
	.byte	$13
	.byte	$11
	.byte	$03
	.byte	$14
	.byte	$08
	.byte	$09
	.byte	$05
	.byte	$88
	.byte	$89
	.byte	$8A
	.byte	$8B
	.byte	$08
	.byte	$09
	.byte	$03
	.byte	$01
	.byte	$03
	.byte	$61
	.byte	$62
	.byte	$00
	.byte	$09
	.byte	$09
	.byte	$63
	.byte	$64
	.byte	$11
	.byte	$14
	.byte	$08
	.byte	$8B
	.byte	$08
	.byte	$08
	.byte	$78
	.byte	$79
	.byte	$05
	.byte	$09
	.byte	$02
	.byte	$01
	.byte	$04
	.byte	$1A
	.byte	$1B
	.byte	$1A
	.byte	$01
	.byte	$04
	.byte	$71
	.byte	$84
	.byte	$00
	.byte	$09
	.byte	$09
	.byte	$73
	.byte	$74
	.byte	$13
	.byte	$14
	.byte	$1B
	.byte	$01
	.byte	$04
	.byte	$1A
	.byte	$88
	.byte	$89
	.byte	$05
	.byte	$09
	.byte	$02
	.byte	$01
	.byte	$14
	.byte	$85
	.byte	$09
	.byte	$02
	.byte	$01
	.byte	$61
	.byte	$81
	.byte	$94
	.byte	$00
	.byte	$09
	.byte	$09
	.byte	$82
	.byte	$63
	.byte	$64
	.byte	$14
	.byte	$85
	.byte	$01
	.byte	$14
	.byte	$05
	.byte	$09
	.byte	$02
	.byte	$86
	.byte	$05
	.byte	$05
	.byte	$01
	.byte	$14
	.byte	$00
	.byte	$13
	.byte	$14
	.byte	$01
	.byte	$71
	.byte	$91
	.byte	$72
	.byte	$00
	.byte	$09
	.byte	$09
	.byte	$92
	.byte	$73
	.byte	$74
	.byte	$13
	.byte	$00
	.byte	$12
	.byte	$13
	.byte	$86
	.byte	$87
	.byte	$87
	.byte	$00
	.byte	$86
	.byte	$87
	.byte	$03
	.byte	$13
	.byte	$00
	.byte	$00
	.byte	$13
	.byte	$01
	.byte	$61
	.byte	$62
	.byte	$72
	.byte	$00
	.byte	$09
	.byte	$09
	.byte	$82
	.byte	$00
	.byte	$00
	.byte	$13
	.byte	$00
	.byte	$14
	.byte	$00
	.byte	$09
	.byte	$06
	.byte	$14
	.byte	$00
	.byte	$09
	.byte	$03
	.byte	$01
	.byte	$71
	.byte	$84
	.byte	$00
	.byte	$09
	.byte	$0A
	.byte	$82
	.byte	$82
	.byte	$83
	.byte	$84
	.byte	$00
	.byte	$13
	.byte	$00
	.byte	$09
	.byte	$03
	.byte	$0D
	.byte	$00
	.byte	$00
	.byte	$0D
	.byte	$0E
	.byte	$0F
	.byte	$83
	.byte	$84
	.byte	$03
	.byte	$81
	.byte	$94
	.byte	$81
	.byte	$00
	.byte	$09
	.byte	$09
	.byte	$61
	.byte	$62
	.byte	$93
	.byte	$94
	.byte	$0D
	.byte	$00
	.byte	$00
	.byte	$0D
	.byte	$0D
	.byte	$0E
	.byte	$1D
	.byte	$0E
	.byte	$0D
	.byte	$87
	.byte	$A4
	.byte	$1F
	.byte	$72
	.byte	$90
	.byte	$13
	.byte	$91
	.byte	$81
	.byte	$91
	.byte	$00
	.byte	$09
	.byte	$09
	.byte	$71
	.byte	$84
	.byte	$00
	.byte	$82
	.byte	$86
	.byte	$0F
	.byte	$0F
	.byte	$1F
	.byte	$86
	.byte	$1E
	.byte	$86
	.byte	$87
	.byte	$0F
	.byte	$A4
	.byte	$0F
	.byte	$1F
	.byte	$72
	.byte	$63
	.byte	$61
	.byte	$62
	.byte	$91
	.byte	$00
	.byte	$09
	.byte	$0B
	.byte	$94
	.byte	$84
	.byte	$00
	.byte	$63
	.byte	$64
	.byte	$1F
	.byte	$0F
	.byte	$A4
	.byte	$1D
	.byte	$00
	.byte	$0F
	.byte	$1F
	.byte	$00
	.byte	$1F
	.byte	$00
	.byte	$72
	.byte	$73
	.byte	$71
	.byte	$84
	.byte	$00
	.byte	$72
	.byte	$00
	.byte	$09
	.byte	$09
	.byte	$82
	.byte	$84
	.byte	$94
	.byte	$64
	.byte	$73
	.byte	$74
	.byte	$00
	.byte	$1F
	.byte	$00
	.byte	$86
	.byte	$0F
	.byte	$1F
	.byte	$61
	.byte	$62
	.byte	$81
	.byte	$84
	.byte	$90
	.byte	$00
	.byte	$81
	.byte	$94
	.byte	$72
	.byte	$72
	.byte	$00
	.byte	$09
	.byte	$09
	.byte	$82
	.byte	$94
	.byte	$73
	.byte	$74
	.byte	$83
	.byte	$84
	.byte	$63
	.byte	$64
	.byte	$63
	.byte	$64
	.byte	$1F
	.byte	$00
	.byte	$62
	.byte	$84
	.byte	$91
	.byte	$94
	.byte	$00
	.byte	$00
	.byte	$91
	.byte	$83
	.byte	$84
	.byte	$90
	.byte	$00
	.byte	$09
	.byte	$09
	.byte	$82
	.byte	$82
	.byte	$92
	.byte	$93
	.byte	$93
	.byte	$94
	.byte	$73
	.byte	$74
	.byte	$92
	.byte	$93
	.byte	$61
	.byte	$62
	.byte	$00
	.byte	$94
	.byte	$00
	.byte	$92
	.byte	$00
	.byte	$00
	.byte	$72
	.byte	$2A
	.byte	$2B
	.byte	$72
	.byte	$00
	.byte	$09
	.byte	$09
	.byte	$83
	.byte	$2A
	.byte	$2B
	.byte	$00
	.byte	$82
	.byte	$92
	.byte	$93
	.byte	$82
	.byte	$00
	.byte	$00
	.byte	$71
	.byte	$00
	.byte	$00
	.byte	$72
	.byte	$92
	.byte	$93
	.byte	$00
	.byte	$72
	.byte	$A0
	.byte	$A1
	.byte	$A2
	.byte	$A3
	.byte	$00
	.byte	$09
	.byte	$09
	.byte	$A0
	.byte	$A1
	.byte	$A2
	.byte	$A3
	.byte	$00
	.byte	$82
	.byte	$00
	.byte	$00
	.byte	$82
	.byte	$00
	.byte	$66
	.byte	$67
	.byte	$B9
	.byte	$10
	.byte	$C9
	.byte	$B9
	.byte	$00
	.byte	$90
	.byte	$29
	.byte	$9C
	.byte	$9D
	.byte	$29
	.byte	$00
	.byte	$09
	.byte	$09
	.byte	$29
	.byte	$95
	.byte	$96
	.byte	$29
	.byte	$00
	.byte	$82
	.byte	$65
	.byte	$66
	.byte	$67
	.byte	$68
	.byte	$05
	.byte	$5B
	.byte	$5C
	.byte	$5D
	.byte	$5E
	.byte	$05
	.byte	$00
	.byte	$61
	.byte	$BE
	.byte	$AC
	.byte	$AD
	.byte	$BE
	.byte	$00
	.byte	$09
	.byte	$09
	.byte	$BE
	.byte	$A5
	.byte	$A6
	.byte	$BE
	.byte	$64
	.byte	$00
	.byte	$05
	.byte	$05
	.byte	$75
	.byte	$76
	.byte	$05
	.byte	$FA
	.byte	$FB
	.byte	$FC
	.byte	$FD
	.byte	$FF
	.byte	$72
	.byte	$71
	.byte	$CE
	.byte	$BC
	.byte	$BD
	.byte	$CE
	.byte	$14
	.byte	$02
	.byte	$03
	.byte	$01
	.byte	$12
	.byte	$02
	.byte	$12
	.byte	$03
	.byte	$03
	.byte	$14
	.byte	$CE
	.byte	$B5
	.byte	$B6
	.byte	$CE
	.byte	$74
	.byte	$82
	.byte	$6B
	.byte	$05
	.byte	$09
	.byte	$03
	.byte	$22
	.byte	$23
	.byte	$24
	.byte	$5F
	.byte	$6A
	.byte	$00
	.byte	$81
	.byte	$12
	.byte	$CC
	.byte	$CD
	.byte	$12
	.byte	$11
	.byte	$12
	.byte	$AF
	.byte	$12
	.byte	$02
	.byte	$01
	.byte	$12
	.byte	$AF
	.byte	$03
	.byte	$14
	.byte	$12
	.byte	$C5
	.byte	$C6
	.byte	$12
	.byte	$63
	.byte	$64
	.byte	$00
	.byte	$6B
	.byte	$05
	.byte	$09
	.byte	$07
	.byte	$65
	.byte	$66
	.byte	$67
	.byte	$68
	.byte	$65
	.byte	$66
	.byte	$67
	.byte	$68
	.byte	$65
	.byte	$66
	.byte	$67
	.byte	$68
	.byte	$65
	.byte	$66
	.byte	$67
	.byte	$68
	.byte	$65
	.byte	$66
	.byte	$67
	.byte	$68
	.byte	$65
	.byte	$66
	.byte	$67
	.byte	$68
	.byte	$05
	.byte	$09
	.byte	$06
	.byte	$76
	.byte	$77
	.byte	$05
	.byte	$09
	.byte	$04
	.byte	$75
	.byte	$76
	.byte	$77
	.byte	$05
	.byte	$09
	.byte	$04
	.byte	$75
	.byte	$76
	.byte	$77
	.byte	$05
	.byte	$09
	.byte	$05
	.byte	$75
	.byte	$05
	.byte	$05
	.byte	$00
	.byte	$00
	.byte	$04
	.byte	$15
	.byte	$05
	.byte	$15
	.byte	$00
	.byte	$09
	.byte	$03
	.byte	$55
	.byte	$05
	.byte	$05
	.byte	$45
	.byte	$99
	.byte	$00
	.byte	$09
	.byte	$02
	.byte	$55
	.byte	$00
	.byte	$00
	.byte	$44
	.byte	$11
	.byte	$00
	.byte	$09
	.byte	$02
	.byte	$55
	.byte	$00
	.byte	$00
	.byte	$44
	.byte	$11
	.byte	$80
	.byte	$AA
	.byte	$66
	.byte	$55
	.byte	$00
	.byte	$00
	.byte	$44
	.byte	$59
	.byte	$AA
	.byte	$56
	.byte	$55
	.byte	$55
	.byte	$00
	.byte	$00
	.byte	$44
	.byte	$55
	.byte	$55
	.byte	$FC
	.byte	$77
	.byte	$55
	.byte	$50
	.byte	$50
	.byte	$54
	.byte	$55
	.byte	$00
	.byte	$09
	.byte	$07
	.byte	$00
	.byte	$09
	.byte	$00
_title_screen:
	.byte	$09
	.byte	$08
	.byte	$09
	.byte	$25
	.byte	$DD
	.byte	$DE
	.byte	$09
	.byte	$12
	.byte	$3E
	.byte	$08
	.byte	$09
	.byte	$0A
	.byte	$05
	.byte	$09
	.byte	$10
	.byte	$EF
	.byte	$FE
	.byte	$05
	.byte	$05
	.byte	$08
	.byte	$09
	.byte	$0A
	.byte	$05
	.byte	$D5
	.byte	$E8
	.byte	$E9
	.byte	$D5
	.byte	$E8
	.byte	$D6
	.byte	$D5
	.byte	$B3
	.byte	$D6
	.byte	$D7
	.byte	$D8
	.byte	$D5
	.byte	$D6
	.byte	$05
	.byte	$05
	.byte	$DF
	.byte	$3A
	.byte	$DF
	.byte	$05
	.byte	$05
	.byte	$08
	.byte	$09
	.byte	$0A
	.byte	$05
	.byte	$B0
	.byte	$E9
	.byte	$05
	.byte	$E4
	.byte	$D5
	.byte	$E6
	.byte	$B0
	.byte	$DA
	.byte	$C4
	.byte	$E4
	.byte	$09
	.byte	$03
	.byte	$05
	.byte	$05
	.byte	$DF
	.byte	$05
	.byte	$D1
	.byte	$05
	.byte	$05
	.byte	$08
	.byte	$09
	.byte	$0A
	.byte	$05
	.byte	$E4
	.byte	$05
	.byte	$05
	.byte	$E4
	.byte	$E5
	.byte	$D6
	.byte	$B0
	.byte	$EA
	.byte	$C4
	.byte	$E4
	.byte	$E5
	.byte	$E0
	.byte	$E4
	.byte	$05
	.byte	$09
	.byte	$03
	.byte	$D1
	.byte	$05
	.byte	$05
	.byte	$08
	.byte	$09
	.byte	$0A
	.byte	$05
	.byte	$E7
	.byte	$05
	.byte	$05
	.byte	$E7
	.byte	$05
	.byte	$E7
	.byte	$E5
	.byte	$E1
	.byte	$E6
	.byte	$E7
	.byte	$05
	.byte	$EE
	.byte	$D9
	.byte	$05
	.byte	$D5
	.byte	$E8
	.byte	$E8
	.byte	$E6
	.byte	$05
	.byte	$05
	.byte	$08
	.byte	$09
	.byte	$0A
	.byte	$05
	.byte	$09
	.byte	$03
	.byte	$D5
	.byte	$E8
	.byte	$D6
	.byte	$D5
	.byte	$E9
	.byte	$B1
	.byte	$B2
	.byte	$05
	.byte	$E5
	.byte	$D0
	.byte	$B3
	.byte	$C4
	.byte	$D4
	.byte	$05
	.byte	$05
	.byte	$D4
	.byte	$05
	.byte	$08
	.byte	$09
	.byte	$0A
	.byte	$05
	.byte	$09
	.byte	$03
	.byte	$E4
	.byte	$D5
	.byte	$E6
	.byte	$B0
	.byte	$E9
	.byte	$05
	.byte	$D1
	.byte	$05
	.byte	$C0
	.byte	$C1
	.byte	$C2
	.byte	$C3
	.byte	$E4
	.byte	$D5
	.byte	$D6
	.byte	$E4
	.byte	$05
	.byte	$08
	.byte	$09
	.byte	$0A
	.byte	$05
	.byte	$09
	.byte	$03
	.byte	$E4
	.byte	$E5
	.byte	$D6
	.byte	$E4
	.byte	$05
	.byte	$05
	.byte	$EE
	.byte	$05
	.byte	$B0
	.byte	$08
	.byte	$D2
	.byte	$D3
	.byte	$E4
	.byte	$09
	.byte	$03
	.byte	$05
	.byte	$08
	.byte	$09
	.byte	$0A
	.byte	$05
	.byte	$09
	.byte	$03
	.byte	$E5
	.byte	$E8
	.byte	$E6
	.byte	$E5
	.byte	$E8
	.byte	$E9
	.byte	$E5
	.byte	$E8
	.byte	$E8
	.byte	$E1
	.byte	$E2
	.byte	$E3
	.byte	$E5
	.byte	$E6
	.byte	$E5
	.byte	$E6
	.byte	$05
	.byte	$08
	.byte	$09
	.byte	$0A
	.byte	$05
	.byte	$09
	.byte	$14
	.byte	$08
	.byte	$09
	.byte	$0A
	.byte	$3D
	.byte	$EC
	.byte	$ED
	.byte	$EC
	.byte	$ED
	.byte	$DB
	.byte	$50
	.byte	$55
	.byte	$53
	.byte	$48
	.byte	$08
	.byte	$53
	.byte	$54
	.byte	$41
	.byte	$52
	.byte	$54
	.byte	$DC
	.byte	$EC
	.byte	$ED
	.byte	$EC
	.byte	$3C
	.byte	$08
	.byte	$09
	.byte	$28
	.byte	$06
	.byte	$07
	.byte	$07
	.byte	$08
	.byte	$09
	.byte	$05
	.byte	$95
	.byte	$96
	.byte	$08
	.byte	$09
	.byte	$03
	.byte	$9C
	.byte	$9D
	.byte	$08
	.byte	$09
	.byte	$0D
	.byte	$15
	.byte	$16
	.byte	$17
	.byte	$17
	.byte	$18
	.byte	$08
	.byte	$09
	.byte	$04
	.byte	$A5
	.byte	$A6
	.byte	$08
	.byte	$09
	.byte	$03
	.byte	$AC
	.byte	$AD
	.byte	$08
	.byte	$09
	.byte	$17
	.byte	$B5
	.byte	$B6
	.byte	$08
	.byte	$09
	.byte	$03
	.byte	$BC
	.byte	$BD
	.byte	$08
	.byte	$09
	.byte	$17
	.byte	$C5
	.byte	$C6
	.byte	$08
	.byte	$09
	.byte	$03
	.byte	$CC
	.byte	$CD
	.byte	$08
	.byte	$09
	.byte	$16
	.byte	$97
	.byte	$98
	.byte	$98
	.byte	$99
	.byte	$08
	.byte	$08
	.byte	$97
	.byte	$98
	.byte	$98
	.byte	$99
	.byte	$08
	.byte	$09
	.byte	$03
	.byte	$06
	.byte	$07
	.byte	$08
	.byte	$09
	.byte	$0F
	.byte	$A7
	.byte	$98
	.byte	$98
	.byte	$A9
	.byte	$08
	.byte	$08
	.byte	$A7
	.byte	$98
	.byte	$98
	.byte	$A9
	.byte	$08
	.byte	$09
	.byte	$02
	.byte	$15
	.byte	$16
	.byte	$17
	.byte	$18
	.byte	$08
	.byte	$09
	.byte	$0E
	.byte	$02
	.byte	$27
	.byte	$28
	.byte	$14
	.byte	$08
	.byte	$08
	.byte	$02
	.byte	$00
	.byte	$00
	.byte	$14
	.byte	$08
	.byte	$09
	.byte	$15
	.byte	$03
	.byte	$25
	.byte	$26
	.byte	$14
	.byte	$08
	.byte	$08
	.byte	$03
	.byte	$00
	.byte	$00
	.byte	$14
	.byte	$08
	.byte	$09
	.byte	$15
	.byte	$03
	.byte	$00
	.byte	$00
	.byte	$14
	.byte	$A8
	.byte	$98
	.byte	$03
	.byte	$00
	.byte	$00
	.byte	$14
	.byte	$08
	.byte	$09
	.byte	$13
	.byte	$8B
	.byte	$08
	.byte	$01
	.byte	$02
	.byte	$03
	.byte	$04
	.byte	$A8
	.byte	$98
	.byte	$01
	.byte	$02
	.byte	$03
	.byte	$04
	.byte	$8B
	.byte	$08
	.byte	$09
	.byte	$07
	.byte	$15
	.byte	$08
	.byte	$09
	.byte	$09
	.byte	$97
	.byte	$98
	.byte	$01
	.byte	$03
	.byte	$09
	.byte	$02
	.byte	$6E
	.byte	$6F
	.byte	$03
	.byte	$09
	.byte	$02
	.byte	$14
	.byte	$A8
	.byte	$99
	.byte	$08
	.byte	$09
	.byte	$11
	.byte	$A7
	.byte	$98
	.byte	$01
	.byte	$AE
	.byte	$AF
	.byte	$AE
	.byte	$7E
	.byte	$7F
	.byte	$AE
	.byte	$AF
	.byte	$AE
	.byte	$14
	.byte	$A8
	.byte	$A9
	.byte	$08
	.byte	$09
	.byte	$11
	.byte	$01
	.byte	$14
	.byte	$01
	.byte	$BE
	.byte	$BF
	.byte	$BE
	.byte	$8E
	.byte	$8F
	.byte	$BE
	.byte	$BF
	.byte	$BE
	.byte	$14
	.byte	$11
	.byte	$14
	.byte	$08
	.byte	$09
	.byte	$11
	.byte	$BF
	.byte	$14
	.byte	$01
	.byte	$CE
	.byte	$CF
	.byte	$CE
	.byte	$9E
	.byte	$9F
	.byte	$CE
	.byte	$CF
	.byte	$CE
	.byte	$14
	.byte	$11
	.byte	$BF
	.byte	$08
	.byte	$09
	.byte	$11
	.byte	$CF
	.byte	$14
	.byte	$01
	.byte	$03
	.byte	$09
	.byte	$07
	.byte	$14
	.byte	$11
	.byte	$CF
	.byte	$08
	.byte	$09
	.byte	$08
	.byte	$06
	.byte	$07
	.byte	$08
	.byte	$09
	.byte	$06
	.byte	$01
	.byte	$14
	.byte	$01
	.byte	$03
	.byte	$09
	.byte	$07
	.byte	$14
	.byte	$11
	.byte	$14
	.byte	$08
	.byte	$09
	.byte	$07
	.byte	$00
	.byte	$C0
	.byte	$F0
	.byte	$09
	.byte	$03
	.byte	$30
	.byte	$00
	.byte	$00
	.byte	$CC
	.byte	$FF
	.byte	$09
	.byte	$03
	.byte	$33
	.byte	$00
	.byte	$00
	.byte	$CC
	.byte	$FF
	.byte	$09
	.byte	$03
	.byte	$33
	.byte	$00
	.byte	$09
	.byte	$13
	.byte	$55
	.byte	$44
	.byte	$11
	.byte	$00
	.byte	$09
	.byte	$03
	.byte	$40
	.byte	$55
	.byte	$66
	.byte	$51
	.byte	$00
	.byte	$09
	.byte	$03
	.byte	$04
	.byte	$05
	.byte	$09
	.byte	$02
	.byte	$00
	.byte	$00
	.byte	$09
	.byte	$00
_boot_screen:
	.byte	$01
	.byte	$00
	.byte	$01
	.byte	$A8
	.byte	$8E
	.byte	$00
	.byte	$43
	.byte	$52
	.byte	$45
	.byte	$41
	.byte	$54
	.byte	$45
	.byte	$44
	.byte	$00
	.byte	$42
	.byte	$59
	.byte	$00
	.byte	$8F
	.byte	$00
	.byte	$01
	.byte	$6C
	.byte	$44
	.byte	$45
	.byte	$53
	.byte	$49
	.byte	$47
	.byte	$4E
	.byte	$2C
	.byte	$43
	.byte	$4F
	.byte	$44
	.byte	$45
	.byte	$00
	.byte	$00
	.byte	$4D
	.byte	$41
	.byte	$54
	.byte	$54
	.byte	$00
	.byte	$48
	.byte	$55
	.byte	$47
	.byte	$48
	.byte	$53
	.byte	$4F
	.byte	$4E
	.byte	$00
	.byte	$01
	.byte	$29
	.byte	$47
	.byte	$41
	.byte	$4D
	.byte	$45
	.byte	$00
	.byte	$41
	.byte	$52
	.byte	$54
	.byte	$00
	.byte	$00
	.byte	$48
	.byte	$41
	.byte	$4C
	.byte	$4C
	.byte	$45
	.byte	$52
	.byte	$00
	.byte	$5A
	.byte	$4F
	.byte	$4C
	.byte	$54
	.byte	$41
	.byte	$4E
	.byte	$00
	.byte	$01
	.byte	$27
	.byte	$4D
	.byte	$55
	.byte	$53
	.byte	$49
	.byte	$43
	.byte	$2C
	.byte	$53
	.byte	$46
	.byte	$58
	.byte	$00
	.byte	$00
	.byte	$54
	.byte	$55
	.byte	$40
	.byte	$00
	.byte	$01
	.byte	$33
	.byte	$42
	.byte	$4F
	.byte	$58
	.byte	$00
	.byte	$41
	.byte	$52
	.byte	$54
	.byte	$00
	.byte	$00
	.byte	$4A
	.byte	$41
	.byte	$53
	.byte	$4F
	.byte	$4E
	.byte	$00
	.byte	$50
	.byte	$41
	.byte	$59
	.byte	$4E
	.byte	$45
	.byte	$00
	.byte	$01
	.byte	$6B
	.byte	$8E
	.byte	$00
	.byte	$44
	.byte	$45
	.byte	$44
	.byte	$49
	.byte	$43
	.byte	$41
	.byte	$54
	.byte	$45
	.byte	$44
	.byte	$00
	.byte	$54
	.byte	$4F
	.byte	$00
	.byte	$8F
	.byte	$00
	.byte	$01
	.byte	$30
	.byte	$41
	.byte	$42
	.byte	$49
	.byte	$47
	.byte	$41
	.byte	$49
	.byte	$4C
	.byte	$2C
	.byte	$45
	.byte	$4C
	.byte	$49
	.byte	$41
	.byte	$4E
	.byte	$41
	.byte	$00
	.byte	$01
	.byte	$16
	.byte	$45
	.byte	$4C
	.byte	$53
	.byte	$41
	.byte	$00
	.byte	$01
	.byte	$75
	.byte	$56
	.byte	$45
	.byte	$52
	.byte	$53
	.byte	$49
	.byte	$4F
	.byte	$4E
	.byte	$00
	.byte	$00
	.byte	$31
	.byte	$2E
	.byte	$30
	.byte	$00
	.byte	$01
	.byte	$1C
	.byte	$32
	.byte	$30
	.byte	$32
	.byte	$30
	.byte	$2E
	.byte	$30
	.byte	$39
	.byte	$2E
	.byte	$31
	.byte	$36
	.byte	$00
	.byte	$01
	.byte	$4D
	.byte	$08
	.byte	$0A
	.byte	$01
	.byte	$03
	.byte	$02
	.byte	$00
	.byte	$00
	.byte	$8A
	.byte	$AA
	.byte	$AA
	.byte	$55
	.byte	$01
	.byte	$02
	.byte	$11
	.byte	$00
	.byte	$A8
	.byte	$AA
	.byte	$AA
	.byte	$55
	.byte	$50
	.byte	$50
	.byte	$20
	.byte	$80
	.byte	$A8
	.byte	$AA
	.byte	$01
	.byte	$02
	.byte	$A0
	.byte	$01
	.byte	$02
	.byte	$00
	.byte	$00
	.byte	$45
	.byte	$55
	.byte	$55
	.byte	$15
	.byte	$02
	.byte	$00
	.byte	$A0
	.byte	$50
	.byte	$54
	.byte	$55
	.byte	$A5
	.byte	$AA
	.byte	$AA
	.byte	$A2
	.byte	$0A
	.byte	$01
	.byte	$03
	.byte	$00
	.byte	$0A
	.byte	$0A
	.byte	$0A
	.byte	$01
	.byte	$00
_options_screen:
	.byte	$01
	.byte	$08
	.byte	$01
	.byte	$25
	.byte	$DD
	.byte	$DE
	.byte	$01
	.byte	$12
	.byte	$3E
	.byte	$08
	.byte	$01
	.byte	$0A
	.byte	$05
	.byte	$01
	.byte	$10
	.byte	$EF
	.byte	$FE
	.byte	$05
	.byte	$05
	.byte	$08
	.byte	$01
	.byte	$0A
	.byte	$05
	.byte	$D5
	.byte	$E8
	.byte	$E9
	.byte	$D5
	.byte	$E8
	.byte	$D6
	.byte	$D5
	.byte	$B3
	.byte	$D6
	.byte	$D7
	.byte	$D8
	.byte	$D5
	.byte	$D6
	.byte	$05
	.byte	$05
	.byte	$DF
	.byte	$3A
	.byte	$DF
	.byte	$05
	.byte	$05
	.byte	$08
	.byte	$01
	.byte	$0A
	.byte	$05
	.byte	$B0
	.byte	$E9
	.byte	$05
	.byte	$E4
	.byte	$D5
	.byte	$E6
	.byte	$B0
	.byte	$DA
	.byte	$C4
	.byte	$E4
	.byte	$01
	.byte	$03
	.byte	$05
	.byte	$05
	.byte	$DF
	.byte	$05
	.byte	$D1
	.byte	$05
	.byte	$05
	.byte	$08
	.byte	$01
	.byte	$0A
	.byte	$05
	.byte	$E4
	.byte	$05
	.byte	$05
	.byte	$E4
	.byte	$E5
	.byte	$D6
	.byte	$B0
	.byte	$EA
	.byte	$C4
	.byte	$E4
	.byte	$E5
	.byte	$E0
	.byte	$E4
	.byte	$05
	.byte	$01
	.byte	$03
	.byte	$D1
	.byte	$05
	.byte	$05
	.byte	$08
	.byte	$01
	.byte	$0A
	.byte	$05
	.byte	$E7
	.byte	$05
	.byte	$05
	.byte	$E7
	.byte	$05
	.byte	$E7
	.byte	$E5
	.byte	$E1
	.byte	$E6
	.byte	$E7
	.byte	$05
	.byte	$EE
	.byte	$D9
	.byte	$05
	.byte	$D5
	.byte	$E8
	.byte	$E8
	.byte	$E6
	.byte	$05
	.byte	$05
	.byte	$08
	.byte	$01
	.byte	$0A
	.byte	$05
	.byte	$01
	.byte	$03
	.byte	$D5
	.byte	$E8
	.byte	$D6
	.byte	$D5
	.byte	$E9
	.byte	$B1
	.byte	$B2
	.byte	$05
	.byte	$E5
	.byte	$D0
	.byte	$B3
	.byte	$C4
	.byte	$D4
	.byte	$05
	.byte	$05
	.byte	$D4
	.byte	$05
	.byte	$08
	.byte	$01
	.byte	$0A
	.byte	$05
	.byte	$01
	.byte	$03
	.byte	$E4
	.byte	$D5
	.byte	$E6
	.byte	$B0
	.byte	$E9
	.byte	$05
	.byte	$D1
	.byte	$05
	.byte	$C0
	.byte	$C1
	.byte	$C2
	.byte	$C3
	.byte	$E4
	.byte	$D5
	.byte	$D6
	.byte	$E4
	.byte	$05
	.byte	$08
	.byte	$01
	.byte	$0A
	.byte	$05
	.byte	$01
	.byte	$03
	.byte	$E4
	.byte	$E5
	.byte	$D6
	.byte	$E4
	.byte	$05
	.byte	$05
	.byte	$EE
	.byte	$05
	.byte	$B0
	.byte	$08
	.byte	$D2
	.byte	$D3
	.byte	$E4
	.byte	$01
	.byte	$03
	.byte	$05
	.byte	$08
	.byte	$01
	.byte	$0A
	.byte	$05
	.byte	$01
	.byte	$03
	.byte	$E5
	.byte	$E8
	.byte	$E6
	.byte	$E5
	.byte	$E8
	.byte	$E9
	.byte	$E5
	.byte	$E8
	.byte	$E8
	.byte	$E1
	.byte	$E2
	.byte	$E3
	.byte	$E5
	.byte	$E6
	.byte	$E5
	.byte	$E6
	.byte	$05
	.byte	$08
	.byte	$01
	.byte	$0A
	.byte	$05
	.byte	$01
	.byte	$14
	.byte	$08
	.byte	$01
	.byte	$0A
	.byte	$3D
	.byte	$EC
	.byte	$ED
	.byte	$EC
	.byte	$ED
	.byte	$DB
	.byte	$50
	.byte	$55
	.byte	$53
	.byte	$48
	.byte	$20
	.byte	$53
	.byte	$54
	.byte	$41
	.byte	$52
	.byte	$54
	.byte	$DC
	.byte	$EC
	.byte	$ED
	.byte	$EC
	.byte	$3C
	.byte	$08
	.byte	$01
	.byte	$28
	.byte	$09
	.byte	$0A
	.byte	$08
	.byte	$01
	.byte	$13
	.byte	$0B
	.byte	$0C
	.byte	$08
	.byte	$01
	.byte	$06
	.byte	$15
	.byte	$19
	.byte	$08
	.byte	$01
	.byte	$15
	.byte	$1C
	.byte	$08
	.byte	$01
	.byte	$0A
	.byte	$25
	.byte	$26
	.byte	$08
	.byte	$4C
	.byte	$45
	.byte	$56
	.byte	$45
	.byte	$4C
	.byte	$00
	.byte	$08
	.byte	$30
	.byte	$00
	.byte	$01
	.byte	$04
	.byte	$08
	.byte	$01
	.byte	$32
	.byte	$00
	.byte	$4D
	.byte	$4F
	.byte	$44
	.byte	$45
	.byte	$00
	.byte	$00
	.byte	$43
	.byte	$4C
	.byte	$41
	.byte	$53
	.byte	$53
	.byte	$49
	.byte	$43
	.byte	$08
	.byte	$01
	.byte	$23
	.byte	$18
	.byte	$08
	.byte	$01
	.byte	$0C
	.byte	$4D
	.byte	$55
	.byte	$53
	.byte	$49
	.byte	$43
	.byte	$08
	.byte	$08
	.byte	$4F
	.byte	$4E
	.byte	$08
	.byte	$01
	.byte	$36
	.byte	$53
	.byte	$4F
	.byte	$55
	.byte	$4E
	.byte	$44
	.byte	$00
	.byte	$00
	.byte	$4F
	.byte	$4E
	.byte	$08
	.byte	$01
	.byte	$2B
	.byte	$15
	.byte	$08
	.byte	$01
	.byte	$03
	.byte	$69
	.byte	$08
	.byte	$08
	.byte	$00
	.byte	$00
	.byte	$48
	.byte	$2E
	.byte	$44
	.byte	$52
	.byte	$4F
	.byte	$50
	.byte	$00
	.byte	$00
	.byte	$4F
	.byte	$4E
	.byte	$08
	.byte	$01
	.byte	$07
	.byte	$6D
	.byte	$08
	.byte	$01
	.byte	$07
	.byte	$7A
	.byte	$7B
	.byte	$00
	.byte	$01
	.byte	$02
	.byte	$08
	.byte	$01
	.byte	$10
	.byte	$7C
	.byte	$7D
	.byte	$08
	.byte	$01
	.byte	$0C
	.byte	$20
	.byte	$01
	.byte	$0F
	.byte	$08
	.byte	$01
	.byte	$0D
	.byte	$48
	.byte	$49
	.byte	$2D
	.byte	$53
	.byte	$43
	.byte	$4F
	.byte	$52
	.byte	$45
	.byte	$08
	.byte	$08
	.byte	$30
	.byte	$01
	.byte	$06
	.byte	$08
	.byte	$01
	.byte	$0F
	.byte	$20
	.byte	$01
	.byte	$10
	.byte	$08
	.byte	$01
	.byte	$07
	.byte	$06
	.byte	$07
	.byte	$08
	.byte	$01
	.byte	$04
	.byte	$20
	.byte	$01
	.byte	$10
	.byte	$08
	.byte	$01
	.byte	$06
	.byte	$00
	.byte	$C0
	.byte	$F0
	.byte	$01
	.byte	$03
	.byte	$30
	.byte	$00
	.byte	$00
	.byte	$CC
	.byte	$FF
	.byte	$01
	.byte	$03
	.byte	$33
	.byte	$00
	.byte	$00
	.byte	$CC
	.byte	$FF
	.byte	$01
	.byte	$03
	.byte	$33
	.byte	$00
	.byte	$00
	.byte	$A0
	.byte	$01
	.byte	$05
	.byte	$00
	.byte	$00
	.byte	$AA
	.byte	$01
	.byte	$02
	.byte	$55
	.byte	$01
	.byte	$02
	.byte	$00
	.byte	$00
	.byte	$AA
	.byte	$01
	.byte	$02
	.byte	$55
	.byte	$01
	.byte	$02
	.byte	$00
	.byte	$00
	.byte	$0A
	.byte	$01
	.byte	$02
	.byte	$05
	.byte	$01
	.byte	$02
	.byte	$00
	.byte	$01
	.byte	$07
	.byte	$00
	.byte	$01
	.byte	$00
_sound_screen:
	.byte	$01
	.byte	$00
	.byte	$01
	.byte	$67
	.byte	$9C
	.byte	$9D
	.byte	$00
	.byte	$01
	.byte	$0B
	.byte	$95
	.byte	$96
	.byte	$00
	.byte	$01
	.byte	$0F
	.byte	$AC
	.byte	$AD
	.byte	$00
	.byte	$01
	.byte	$0B
	.byte	$A5
	.byte	$A6
	.byte	$00
	.byte	$01
	.byte	$0F
	.byte	$BC
	.byte	$BD
	.byte	$8E
	.byte	$53
	.byte	$4F
	.byte	$55
	.byte	$4E
	.byte	$44
	.byte	$00
	.byte	$54
	.byte	$45
	.byte	$53
	.byte	$54
	.byte	$8F
	.byte	$B5
	.byte	$B6
	.byte	$00
	.byte	$01
	.byte	$0F
	.byte	$CC
	.byte	$CD
	.byte	$00
	.byte	$01
	.byte	$0B
	.byte	$C5
	.byte	$C6
	.byte	$00
	.byte	$01
	.byte	$89
	.byte	$09
	.byte	$0A
	.byte	$00
	.byte	$01
	.byte	$09
	.byte	$0B
	.byte	$0C
	.byte	$09
	.byte	$0A
	.byte	$00
	.byte	$01
	.byte	$09
	.byte	$0B
	.byte	$0C
	.byte	$00
	.byte	$01
	.byte	$03
	.byte	$19
	.byte	$00
	.byte	$01
	.byte	$0B
	.byte	$1C
	.byte	$19
	.byte	$00
	.byte	$01
	.byte	$0B
	.byte	$1C
	.byte	$00
	.byte	$01
	.byte	$05
	.byte	$4D
	.byte	$55
	.byte	$53
	.byte	$49
	.byte	$43
	.byte	$00
	.byte	$54
	.byte	$52
	.byte	$41
	.byte	$43
	.byte	$4B
	.byte	$00
	.byte	$01
	.byte	$04
	.byte	$53
	.byte	$4F
	.byte	$55
	.byte	$4E
	.byte	$44
	.byte	$00
	.byte	$46
	.byte	$58
	.byte	$00
	.byte	$01
	.byte	$07
	.byte	$30
	.byte	$01
	.byte	$02
	.byte	$00
	.byte	$01
	.byte	$11
	.byte	$30
	.byte	$01
	.byte	$02
	.byte	$00
	.byte	$01
	.byte	$27
	.byte	$42
	.byte	$00
	.byte	$01
	.byte	$03
	.byte	$50
	.byte	$4C
	.byte	$41
	.byte	$59
	.byte	$00
	.byte	$01
	.byte	$08
	.byte	$41
	.byte	$00
	.byte	$50
	.byte	$4C
	.byte	$41
	.byte	$59
	.byte	$00
	.byte	$01
	.byte	$07
	.byte	$44
	.byte	$4F
	.byte	$57
	.byte	$4E
	.byte	$00
	.byte	$4E
	.byte	$45
	.byte	$58
	.byte	$54
	.byte	$00
	.byte	$01
	.byte	$04
	.byte	$52
	.byte	$49
	.byte	$47
	.byte	$48
	.byte	$54
	.byte	$00
	.byte	$4E
	.byte	$45
	.byte	$58
	.byte	$54
	.byte	$00
	.byte	$01
	.byte	$07
	.byte	$55
	.byte	$50
	.byte	$00
	.byte	$01
	.byte	$02
	.byte	$50
	.byte	$52
	.byte	$45
	.byte	$56
	.byte	$00
	.byte	$01
	.byte	$05
	.byte	$4C
	.byte	$45
	.byte	$46
	.byte	$54
	.byte	$00
	.byte	$50
	.byte	$52
	.byte	$45
	.byte	$56
	.byte	$00
	.byte	$01
	.byte	$05
	.byte	$69
	.byte	$00
	.byte	$01
	.byte	$0B
	.byte	$6D
	.byte	$69
	.byte	$00
	.byte	$01
	.byte	$0B
	.byte	$6D
	.byte	$00
	.byte	$01
	.byte	$03
	.byte	$7A
	.byte	$7B
	.byte	$00
	.byte	$01
	.byte	$09
	.byte	$7C
	.byte	$7D
	.byte	$7A
	.byte	$7B
	.byte	$00
	.byte	$01
	.byte	$09
	.byte	$7C
	.byte	$7D
	.byte	$00
	.byte	$01
	.byte	$86
	.byte	$2D
	.byte	$50
	.byte	$52
	.byte	$45
	.byte	$53
	.byte	$53
	.byte	$00
	.byte	$53
	.byte	$45
	.byte	$4C
	.byte	$45
	.byte	$43
	.byte	$54
	.byte	$00
	.byte	$54
	.byte	$4F
	.byte	$00
	.byte	$51
	.byte	$55
	.byte	$49
	.byte	$54
	.byte	$2D
	.byte	$00
	.byte	$01
	.byte	$84
	.byte	$AA
	.byte	$01
	.byte	$18
	.byte	$5A
	.byte	$AA
	.byte	$01
	.byte	$03
	.byte	$5A
	.byte	$AA
	.byte	$AA
	.byte	$55
	.byte	$AA
	.byte	$AA
	.byte	$66
	.byte	$55
	.byte	$AA
	.byte	$01
	.byte	$11
	.byte	$0A
	.byte	$01
	.byte	$06
	.byte	$0A
	.byte	$01
	.byte	$00
_ty_screen:
	.byte	$02
	.byte	$00
	.byte	$02
	.byte	$46
	.byte	$8E
	.byte	$00
	.byte	$53
	.byte	$50
	.byte	$45
	.byte	$43
	.byte	$49
	.byte	$41
	.byte	$4C
	.byte	$00
	.byte	$54
	.byte	$48
	.byte	$41
	.byte	$4E
	.byte	$4B
	.byte	$53
	.byte	$00
	.byte	$8F
	.byte	$00
	.byte	$02
	.byte	$2A
	.byte	$38
	.byte	$30
	.byte	$31
	.byte	$00
	.byte	$50
	.byte	$45
	.byte	$4C
	.byte	$00
	.byte	$02
	.byte	$06
	.byte	$4A
	.byte	$45
	.byte	$4B
	.byte	$55
	.byte	$54
	.byte	$48
	.byte	$49
	.byte	$45
	.byte	$4C
	.byte	$00
	.byte	$02
	.byte	$28
	.byte	$41
	.byte	$47
	.byte	$45
	.byte	$4E
	.byte	$54
	.byte	$42
	.byte	$41
	.byte	$53
	.byte	$45
	.byte	$59
	.byte	$00
	.byte	$02
	.byte	$03
	.byte	$4C
	.byte	$49
	.byte	$44
	.byte	$4E
	.byte	$41
	.byte	$52
	.byte	$49
	.byte	$51
	.byte	$00
	.byte	$02
	.byte	$29
	.byte	$42
	.byte	$45
	.byte	$4E
	.byte	$00
	.byte	$4C
	.byte	$41
	.byte	$52
	.byte	$53
	.byte	$53
	.byte	$4F
	.byte	$4E
	.byte	$00
	.byte	$02
	.byte	$02
	.byte	$4D
	.byte	$2D
	.byte	$54
	.byte	$45
	.byte	$45
	.byte	$00
	.byte	$02
	.byte	$2C
	.byte	$42
	.byte	$45
	.byte	$4E
	.byte	$4A
	.byte	$59
	.byte	$00
	.byte	$02
	.byte	$08
	.byte	$4D
	.byte	$45
	.byte	$4D
	.byte	$42
	.byte	$4C
	.byte	$45
	.byte	$52
	.byte	$53
	.byte	$00
	.byte	$02
	.byte	$29
	.byte	$42
	.byte	$52
	.byte	$4F
	.byte	$4B
	.byte	$45
	.byte	$00
	.byte	$53
	.byte	$54
	.byte	$55
	.byte	$44
	.byte	$49
	.byte	$4F
	.byte	$00
	.byte	$00
	.byte	$4D
	.byte	$55
	.byte	$55
	.byte	$4E
	.byte	$41
	.byte	$53
	.byte	$00
	.byte	$02
	.byte	$2B
	.byte	$43
	.byte	$50
	.byte	$50
	.byte	$43
	.byte	$48
	.byte	$52
	.byte	$49
	.byte	$53
	.byte	$43
	.byte	$50
	.byte	$50
	.byte	$00
	.byte	$02
	.byte	$02
	.byte	$4E
	.byte	$45
	.byte	$53
	.byte	$2D
	.byte	$44
	.byte	$4F
	.byte	$55
	.byte	$47
	.byte	$00
	.byte	$02
	.byte	$29
	.byte	$48
	.byte	$49
	.byte	$45
	.byte	$55
	.byte	$00
	.byte	$41
	.byte	$4E
	.byte	$44
	.byte	$00
	.byte	$4B
	.byte	$48
	.byte	$49
	.byte	$4E
	.byte	$00
	.byte	$50
	.byte	$4D
	.byte	$59
	.byte	$41
	.byte	$00
	.byte	$02
	.byte	$2D
	.byte	$44
	.byte	$4F
	.byte	$47
	.byte	$45
	.byte	$00
	.byte	$02
	.byte	$09
	.byte	$53
	.byte	$48
	.byte	$49
	.byte	$52
	.byte	$55
	.byte	$00
	.byte	$02
	.byte	$2C
	.byte	$44
	.byte	$52
	.byte	$45
	.byte	$58
	.byte	$45
	.byte	$47
	.byte	$41
	.byte	$52
	.byte	$00
	.byte	$02
	.byte	$05
	.byte	$53
	.byte	$4F
	.byte	$4C
	.byte	$45
	.byte	$00
	.byte	$47
	.byte	$4F
	.byte	$4F
	.byte	$53
	.byte	$45
	.byte	$00
	.byte	$02
	.byte	$27
	.byte	$45
	.byte	$52
	.byte	$49
	.byte	$43
	.byte	$49
	.byte	$43
	.byte	$58
	.byte	$00
	.byte	$02
	.byte	$06
	.byte	$54
	.byte	$45
	.byte	$50
	.byte	$50
	.byte	$4C
	.byte	$45
	.byte	$53
	.byte	$00
	.byte	$02
	.byte	$2A
	.byte	$46
	.byte	$49
	.byte	$53
	.byte	$4B
	.byte	$42
	.byte	$49
	.byte	$54
	.byte	$00
	.byte	$02
	.byte	$06
	.byte	$54
	.byte	$48
	.byte	$45
	.byte	$00
	.byte	$41
	.byte	$53
	.byte	$4D
	.byte	$00
	.byte	$4C
	.byte	$49
	.byte	$4E
	.byte	$45
	.byte	$00
	.byte	$02
	.byte	$25
	.byte	$49
	.byte	$4E
	.byte	$4C
	.byte	$00
	.byte	$02
	.byte	$0A
	.byte	$54
	.byte	$48
	.byte	$45
	.byte	$4D
	.byte	$45
	.byte	$54
	.byte	$41
	.byte	$4C
	.byte	$42
	.byte	$45
	.byte	$41
	.byte	$53
	.byte	$54
	.byte	$00
	.byte	$02
	.byte	$32
	.byte	$2E
	.byte	$02
	.byte	$02
	.byte	$41
	.byte	$4E
	.byte	$44
	.byte	$00
	.byte	$59
	.byte	$4F
	.byte	$55
	.byte	$21
	.byte	$00
	.byte	$02
	.byte	$23
	.byte	$80
	.byte	$A0
	.byte	$02
	.byte	$04
	.byte	$00
	.byte	$00
	.byte	$55
	.byte	$02
	.byte	$02
	.byte	$65
	.byte	$55
	.byte	$55
	.byte	$01
	.byte	$00
	.byte	$55
	.byte	$02
	.byte	$05
	.byte	$00
	.byte	$00
	.byte	$55
	.byte	$02
	.byte	$05
	.byte	$AA
	.byte	$80
	.byte	$55
	.byte	$55
	.byte	$05
	.byte	$55
	.byte	$02
	.byte	$02
	.byte	$00
	.byte	$00
	.byte	$55
	.byte	$55
	.byte	$50
	.byte	$55
	.byte	$02
	.byte	$02
	.byte	$5A
	.byte	$84
	.byte	$55
	.byte	$02
	.byte	$02
	.byte	$66
	.byte	$55
	.byte	$02
	.byte	$02
	.byte	$00
	.byte	$05
	.byte	$09
	.byte	$0A
	.byte	$02
	.byte	$03
	.byte	$0A
	.byte	$02
	.byte	$00
_attack_delay:
	.word	$0258
_starting_levels:
	.byte	$30
	.byte	$31
	.byte	$32
	.byte	$33
	.byte	$34
	.byte	$35
	.byte	$36
	.byte	$37
	.byte	$38
	.byte	$39
_konami_code:
	.byte	$08
	.byte	$08
	.byte	$04
	.byte	$04
	.byte	$02
	.byte	$01
	.byte	$02
	.byte	$01
	.byte	$40
	.byte	$80
	.byte	$10
_def_line:
	.byte	$02
	.byte	$03
	.byte	$06
	.byte	$07
	.byte	$04
	.byte	$06
	.byte	$0C
	.byte	$0E
	.byte	$08
	.byte	$09
	.byte	$0C
	.byte	$0D
	.byte	$01
	.byte	$03
	.byte	$09
	.byte	$0B
_def_square:
	.byte	$03
	.byte	$06
	.byte	$09
	.byte	$0C
	.byte	$03
	.byte	$06
	.byte	$09
	.byte	$0C
	.byte	$03
	.byte	$06
	.byte	$09
	.byte	$0C
	.byte	$03
	.byte	$06
	.byte	$09
	.byte	$0C
_def_L_rev:
	.byte	$00
	.byte	$02
	.byte	$03
	.byte	$06
	.byte	$01
	.byte	$04
	.byte	$03
	.byte	$09
	.byte	$02
	.byte	$03
	.byte	$06
	.byte	$0C
	.byte	$01
	.byte	$03
	.byte	$08
	.byte	$09
_def_L:
	.byte	$04
	.byte	$02
	.byte	$03
	.byte	$06
	.byte	$01
	.byte	$03
	.byte	$09
	.byte	$0C
	.byte	$02
	.byte	$03
	.byte	$06
	.byte	$08
	.byte	$00
	.byte	$01
	.byte	$03
	.byte	$09
_def_S:
	.byte	$01
	.byte	$04
	.byte	$02
	.byte	$03
	.byte	$01
	.byte	$03
	.byte	$06
	.byte	$0C
	.byte	$03
	.byte	$06
	.byte	$08
	.byte	$09
	.byte	$00
	.byte	$02
	.byte	$03
	.byte	$09
_def_Z:
	.byte	$00
	.byte	$01
	.byte	$03
	.byte	$06
	.byte	$04
	.byte	$03
	.byte	$06
	.byte	$09
	.byte	$02
	.byte	$03
	.byte	$09
	.byte	$0C
	.byte	$01
	.byte	$02
	.byte	$03
	.byte	$08
_def_T:
	.byte	$01
	.byte	$02
	.byte	$03
	.byte	$06
	.byte	$06
	.byte	$01
	.byte	$03
	.byte	$09
	.byte	$09
	.byte	$06
	.byte	$03
	.byte	$02
	.byte	$02
	.byte	$09
	.byte	$03
	.byte	$01
_srs_non_line_rotate_lookup:
	.byte	$0E
	.byte	$0D
	.byte	$38
	.byte	$0E
	.byte	$12
	.byte	$1A
	.byte	$25
	.byte	$04
	.byte	$1A
	.byte	$26
	.byte	$1A
	.byte	$0D
	.byte	$2C
	.byte	$1A
	.byte	$06
	.byte	$0E
	.byte	$25
	.byte	$10
	.byte	$0E
	.byte	$32
_srs_line_rotate_lookup:
	.byte	$0B
	.byte	$1E
	.byte	$20
	.byte	$14
	.byte	$26
	.byte	$1B
	.byte	$0A
	.byte	$1C
	.byte	$28
	.byte	$12
	.byte	$0E
	.byte	$1E
	.byte	$02
	.byte	$3C
	.byte	$09
	.byte	$1A
	.byte	$0A
	.byte	$36
	.byte	$00
	.byte	$31
_cluster_sprites:
	.byte	$F0
	.byte	$F1
	.byte	$F2
	.byte	$F3
	.byte	$F4
	.byte	$F5
	.byte	$F6
_cluster_offsets:
	.byte	$04
	.byte	$04
	.byte	$03
	.byte	$03
	.byte	$04
	.byte	$04
	.byte	$04
_button_delay:
	.byte	$05
_OOB_TOP:
	.byte	$28
_tentacle_offsets:
	.byte	$FF
	.byte	$00
	.byte	$01
	.byte	$00
_garbage_types:
	.byte	$60
	.byte	$70
	.byte	$2F
_board_lookup_y:
	.byte	$00
	.byte	$0A
	.byte	$14
	.byte	$1E
	.byte	$28
	.byte	$32
	.byte	$3C
	.byte	$46
	.byte	$50
	.byte	$5A
	.byte	$64
	.byte	$6E
	.byte	$78
	.byte	$82
	.byte	$8C
	.byte	$96
	.byte	$A0
	.byte	$AA
	.byte	$B4
	.byte	$BE
	.byte	$C8
	.byte	$D2
	.byte	$DC
	.byte	$E6
_empty_row:
	.byte	$00
	.byte	$00
	.byte	$00
	.byte	$00
	.byte	$00
	.byte	$00
	.byte	$00
	.byte	$00
	.byte	$00
	.byte	$00
_full_row:
	.byte	$01
	.byte	$01
	.byte	$01
	.byte	$01
	.byte	$01
	.byte	$01
	.byte	$01
	.byte	$01
	.byte	$01
	.byte	$01
_full_col:
	.byte	$01
	.byte	$01
	.byte	$01
	.byte	$01
	.byte	$01
	.byte	$01
	.byte	$01
	.byte	$01
	.byte	$01
	.byte	$01
	.byte	$01
	.byte	$01
	.byte	$01
	.byte	$01
	.byte	$01
	.byte	$01
	.byte	$01
	.byte	$01
	.byte	$01
	.byte	$01
_option_empty:
	.byte	$00
	.byte	$00
_option_icon:
	.byte	$25
	.byte	$26
_palette_bg:
	.byte	$0F
	.byte	$22
	.byte	$31
	.byte	$30
	.byte	$0F
	.byte	$00
	.byte	$17
	.byte	$28
	.byte	$0F
	.byte	$2A
	.byte	$16
	.byte	$36
	.byte	$0F
	.byte	$22
	.byte	$26
	.byte	$36
_palette_sp:
	.byte	$0F
	.byte	$22
	.byte	$31
	.byte	$30
	.byte	$0F
	.byte	$0F
	.byte	$26
	.byte	$36
	.byte	$0F
	.byte	$16
	.byte	$31
	.byte	$36
	.byte	$0F
	.byte	$0F
	.byte	$26
	.byte	$36
_palette_bg_options:
	.byte	$0F
	.byte	$22
	.byte	$31
	.byte	$30
	.byte	$0F
	.byte	$30
	.byte	$0F
	.byte	$26
	.byte	$0F
	.byte	$22
	.byte	$0F
	.byte	$26
	.byte	$0F
	.byte	$22
	.byte	$26
	.byte	$36
_palette_bg_list:
	.byte	$0F
	.byte	$22
	.byte	$31
	.byte	$30
	.byte	$0F
	.byte	$00
	.byte	$17
	.byte	$28
	.byte	$0F
	.byte	$2A
	.byte	$16
	.byte	$36
	.byte	$0F
	.byte	$22
	.byte	$26
	.byte	$36
	.byte	$0F
	.byte	$22
	.byte	$36
	.byte	$30
	.byte	$0F
	.byte	$00
	.byte	$17
	.byte	$27
	.byte	$0F
	.byte	$2A
	.byte	$16
	.byte	$38
	.byte	$0F
	.byte	$22
	.byte	$26
	.byte	$36
	.byte	$0F
	.byte	$1C
	.byte	$36
	.byte	$30
	.byte	$0F
	.byte	$00
	.byte	$17
	.byte	$27
	.byte	$0F
	.byte	$1A
	.byte	$16
	.byte	$38
	.byte	$0F
	.byte	$1C
	.byte	$26
	.byte	$36
	.byte	$0F
	.byte	$0C
	.byte	$23
	.byte	$34
	.byte	$0F
	.byte	$00
	.byte	$07
	.byte	$10
	.byte	$0F
	.byte	$1A
	.byte	$17
	.byte	$27
	.byte	$0F
	.byte	$0C
	.byte	$16
	.byte	$27
	.byte	$0F
	.byte	$0C
	.byte	$1C
	.byte	$10
	.byte	$0F
	.byte	$00
	.byte	$07
	.byte	$22
	.byte	$0F
	.byte	$1B
	.byte	$07
	.byte	$17
	.byte	$0F
	.byte	$0C
	.byte	$11
	.byte	$22
	.byte	$0F
	.byte	$0C
	.byte	$22
	.byte	$27
	.byte	$0F
	.byte	$00
	.byte	$18
	.byte	$27
	.byte	$0F
	.byte	$1A
	.byte	$17
	.byte	$27
	.byte	$0F
	.byte	$0C
	.byte	$22
	.byte	$36
	.byte	$0F
	.byte	$1C
	.byte	$36
	.byte	$30
	.byte	$0F
	.byte	$00
	.byte	$18
	.byte	$26
	.byte	$0F
	.byte	$2A
	.byte	$16
	.byte	$38
	.byte	$0F
	.byte	$1C
	.byte	$26
	.byte	$36
	.byte	$0F
	.byte	$23
	.byte	$32
	.byte	$30
	.byte	$0F
	.byte	$00
	.byte	$17
	.byte	$28
	.byte	$0F
	.byte	$2A
	.byte	$16
	.byte	$36
	.byte	$0F
	.byte	$23
	.byte	$26
	.byte	$36
_fall_rates_per_level:
	.byte	$30
	.byte	$2B
	.byte	$26
	.byte	$21
	.byte	$1C
	.byte	$17
	.byte	$12
	.byte	$0D
	.byte	$08
	.byte	$06
	.byte	$05
	.byte	$05
	.byte	$05
	.byte	$04
	.byte	$04
	.byte	$04
	.byte	$03
	.byte	$03
	.byte	$03
	.byte	$02
	.byte	$02
	.byte	$02
	.byte	$02
	.byte	$02
	.byte	$02
	.byte	$02
	.byte	$02
	.byte	$02
	.byte	$02
	.byte	$01
_attack_style_strings:
	.byte	$46,$49,$58,$45,$44,$00
	.res	1,$00
	.byte	$54,$49,$4D,$45,$44,$00
	.res	1,$00
	.byte	$43,$4C,$41,$53,$53,$49,$43
_off_on_string:
	.byte	$4F,$46,$46,$00
	.byte	$4F,$4E,$00
	.res	1,$00
_block_style_strings:
	.byte	$4D,$4F,$44,$45,$52,$4E,$00
	.byte	$43,$4C,$41,$53,$53,$49,$43
_hard_drop_types:
	.byte	$4F,$46,$46,$00
	.byte	$54,$41,$50,$00
	.byte	$48,$4F,$4C,$44
_text_push_start:
	.byte	$50,$55,$53,$48,$20,$53,$54,$41,$52,$54,$00
_clear_push_start:
	.byte	$20,$20,$20,$20,$20,$20,$20,$20,$20,$20,$00
_metasprite_tentacle_title:
	.byte	$00
	.byte	$00
	.byte	$60
	.byte	$01
	.byte	$08
	.byte	$00
	.byte	$61
	.byte	$01
	.byte	$00
	.byte	$08
	.byte	$70
	.byte	$01
	.byte	$08
	.byte	$08
	.byte	$71
	.byte	$01
	.byte	$00
	.byte	$10
	.byte	$80
	.byte	$01
	.byte	$08
	.byte	$10
	.byte	$81
	.byte	$01
	.byte	$00
	.byte	$18
	.byte	$90
	.byte	$01
	.byte	$08
	.byte	$18
	.byte	$91
	.byte	$01
	.byte	$80
L142B:
	.byte	$47,$41,$4D,$45,$20,$4F,$56,$45,$52,$21,$00
L1435:
	.byte	$41,$2D,$52,$45,$53,$54,$41,$52,$54,$20,$00
L143F:
	.byte	$42,$2D,$51,$55,$49,$54,$20,$20,$20,$20,$00
L14F1:
	.byte	$30,$30,$30,$30,$30,$30,$30,$00
L14D0:
	.byte	$20,$20,$20,$20,$20,$20,$00
L1913	:=	L14F1+4
L1797	:=	L14F1+4
L1772	:=	L14F1+4
L1515	:=	L14F1+5

.segment	"BSS"

.segment	"ZEROPAGE"
_tick_count:
	.res	1,$00
_tick_count_large:
	.res	2,$00
_ticks_in_state_large:
	.res	2,$00
_hit_reaction_remaining:
	.res	1,$00
_attack_queue_ticks_remaining:
	.res	2,$00
_pad_all:
	.res	1,$00
_pad_all_new:
	.res	1,$00
_pad1:
	.res	1,$00
_pad1_new:
	.res	1,$00
_pad2:
	.res	1,$00
_pad2_new:
	.res	1,$00
_scroll_y:
	.res	2,$00
_cur_option:
	.res	1,$00
_attack_style:
	.res	1,$00
_music_on:
	.res	1,$00
_sfx_on:
	.res	1,$00
_block_style:
	.res	1,$00
_saved_starting_level:
	.res	1,$00
_hard_drops_on:
	.res	1,$00
_hard_drop_hold_remaining:
	.res	1,$00
_hard_drop_tap_required:
	.res	1,$00
_cur_konami_index:
	.res	1,$00
_cur_rot:
	.res	1,$00
_cur_cluster:
	.res	22,$00
_next_cluster:
	.res	22,$00
_attack_row_status:
	.res	10,$00
_horz_button_delay:
	.res	1,$00
_require_new_down_button:
	.res	1,$00
_fall_frame_counter:
	.res	1,$00
_lines_cleared_one:
	.res	1,$00
_lines_cleared_ten:
	.res	1,$00
_lines_cleared_hundred:
	.res	1,$00
_cur_score:
	.res	4,$00
_cur_nt:
	.res	1,$00
_off_nt:
	.res	1,$00
_hit:
	.res	1,$00
_temp_fall_frame_counter:
	.res	1,$00
_old_x:
	.res	1,$00
_id:
	.res	1,$00
_min_y:
	.res	1,$00
_max_y:
	.res	1,$00
_in_x:
	.res	1,$00
_in_y:
	.res	1,$00
_in_id:
	.res	1,$00
_local_start_x:
	.res	1,$00
_local_start_y:
	.res	1,$00
_local_ix:
	.res	1,$00
_local_iy:
	.res	1,$00
_local_t:
	.res	2,$00
_local_bit:
	.res	1,$00
_local_row_status:
	.res	1,$00
_test_song:
	.res	1,$00
_test_song_active:
	.res	1,$00
_test_sound:
	.res	1,$00
_cur_gameplay_music:
	.res	1,$00
_attack_queued:
	.res	1,$00
_cur_garbage_type:
	.res	1,$00
_delay_lock_remaining:
	.res	1,$00
_delay_lock_skip:
	.res	1,$00
_delay_spawn_remaining:
	.res	1,$00
_spawn_queued:
	.res	1,$00
_row_to_clear:
	.res	1,$00
_kill_row_cur:
	.res	1,$00
_kill_row_queued:
	.res	1,$00
_start_delay_remaining:
	.res	1,$00
_mask:
	.res	2,$00
_address:
	.res	2,$00
_time_of_day:
	.res	1,$00
_temp_pal:
	.res	16,$00
_lines_cleared_y:
	.res	4,$00
_line_score_mod:
	.res	2,$00
.segment	"BSS"
_game_board:
	.res	240,$00
_game_board_temp:
	.res	240,$00
_copy_board_data:
	.res	20,$00
_screen_shake_remaining:
	.res	1,$00
_is_tspin:
	.res	1,$00
_is_last_rotate:
	.res	1,$00

; ---------------------------------------------------------------
; void __near__ randomize_bag (unsigned char *, unsigned char)
; ---------------------------------------------------------------

.segment	"CODE"

.proc	_randomize_bag: near

	.dbg	func, "randomize_bag", "00", extern, "_randomize_bag"
	.dbg	sym, "arr", "00", auto, 1
	.dbg	sym, "n", "00", auto, 0
	.dbg	sym, "i", "00", auto, -1

.segment	"CODE"

;
; {
;
	.dbg	line, "main.c", 2357
	jsr     pusha
;
; for (i = n - 1; i > 0; i--)
;
	.dbg	line, "main.c", 2365
	jsr     decsp1
	ldy     #$01
	lda     (sp),y
	sec
	sbc     #$01
	dey
L1932:	sta     (sp),y
	lda     (sp),y
	beq     L1207
;
; unsigned char j = rand() % (i + 1);
;
	.dbg	line, "main.c", 2368
	jsr     _rand
	jsr     pushax
	ldy     #$02
	ldx     #$00
	lda     (sp),y
	clc
	adc     #$01
	bcc     L1211
	inx
L1211:	jsr     tosumodax
	jsr     pusha
;
; swap(&arr[i], &arr[j]);
;
	.dbg	line, "main.c", 2371
	ldy     #$01
	lda     (sp),y
	clc
	ldy     #$03
	adc     (sp),y
	pha
	lda     #$00
	iny
	adc     (sp),y
	tax
	pla
	jsr     pushax
	ldy     #$02
	lda     (sp),y
	clc
	ldy     #$05
	adc     (sp),y
	pha
	lda     #$00
	iny
	adc     (sp),y
	tax
	pla
	jsr     _swap
;
; }
;
	.dbg	line, "main.c", 2372
	jsr     incsp1
;
; for (i = n - 1; i > 0; i--)
;
	.dbg	line, "main.c", 2365
	ldy     #$00
	lda     (sp),y
	sec
	sbc     #$01
	jmp     L1932
;
; }
;
	.dbg	line, "main.c", 2373
L1207:	jmp     incsp4
	.dbg	line

.endproc

; ---------------------------------------------------------------
; void __near__ swap (__near__ unsigned char *, __near__ unsigned char *)
; ---------------------------------------------------------------

.segment	"CODE"

.proc	_swap: near

	.dbg	func, "swap", "00", extern, "_swap"
	.dbg	sym, "a", "00", auto, 2
	.dbg	sym, "b", "00", auto, 0
	.dbg	sym, "temp", "00", auto, -1

.segment	"CODE"

;
; {
;
	.dbg	line, "main.c", 2376
	jsr     pushax
;
; unsigned char temp = *a;
;
	.dbg	line, "main.c", 2377
	ldy     #$03
	lda     (sp),y
	sta     ptr1+1
	dey
	lda     (sp),y
	sta     ptr1
	ldy     #$00
	lda     (ptr1),y
	jsr     pusha
;
; *a = *b;
;
	.dbg	line, "main.c", 2378
	ldy     #$06
	jsr     pushwysp
	ldy     #$04
	lda     (sp),y
	sta     ptr1+1
	dey
	lda     (sp),y
	sta     ptr1
	ldy     #$00
	lda     (ptr1),y
	jsr     staspidx
;
; *b = temp;
;
	.dbg	line, "main.c", 2379
	ldy     #$02
	lda     (sp),y
	sta     ptr1+1
	dey
	lda     (sp),y
	sta     ptr1
	dey
	lda     (sp),y
	sta     (ptr1),y
;
; }
;
	.dbg	line, "main.c", 2380
	jmp     incsp5
	.dbg	line

.endproc

; ---------------------------------------------------------------
; void __near__ draw_menu_sprites (void)
; ---------------------------------------------------------------

.segment	"CODE"

.proc	_draw_menu_sprites: near

	.dbg	func, "draw_menu_sprites", "00", extern, "_draw_menu_sprites"

.segment	"BSS"

L0EC9:
	.res	1,$00

.segment	"CODE"

;
; oam_clear();
;
	.dbg	line, "main.c", 1560
	jsr     _oam_clear
;
; t = tick_count % 64;
;
	.dbg	line, "main.c", 1563
	lda     _tick_count
	and     #$3F
	sta     L0EC9
;
; if (t > 48)
;
	.dbg	line, "main.c", 1564
	cmp     #$31
	bcc     L1934
;
; local_ix = 0x69;
;
	.dbg	line, "main.c", 1566
	lda     #$69
;
; else if (t > 32)
;
	.dbg	line, "main.c", 1568
	jmp     L1933
L1934:	lda     L0EC9
	cmp     #$21
	bcc     L1935
;
; local_ix = 0x68;
;
	.dbg	line, "main.c", 1570
	lda     #$68
;
; else if (t > 16)
;
	.dbg	line, "main.c", 1572
	jmp     L1933
L1935:	lda     L0EC9
	cmp     #$11
	bcc     L1936
;
; local_ix = 0x67;
;
	.dbg	line, "main.c", 1574
	lda     #$67
;
; else
;
	.dbg	line, "main.c", 1576
	jmp     L1933
;
; local_ix = 0x66;
;
	.dbg	line, "main.c", 1578
L1936:	lda     #$66
L1933:	sta     _local_ix
;
; oam_spr(10 << 3, 23 << 3, local_ix, 0);
;
	.dbg	line, "main.c", 1581
	jsr     decsp3
	lda     #$50
	ldy     #$02
	sta     (sp),y
	lda     #$B8
	dey
	sta     (sp),y
	lda     _local_ix
	dey
	sta     (sp),y
	tya
	jsr     _oam_spr
;
; oam_spr(22 << 3, 23 << 3, local_ix, 0);
;
	.dbg	line, "main.c", 1582
	jsr     decsp3
	lda     #$B0
	ldy     #$02
	sta     (sp),y
	lda     #$B8
	dey
	sta     (sp),y
	lda     _local_ix
	dey
	sta     (sp),y
	tya
	jsr     _oam_spr
;
; oam_meta_spr(19<<3, 14<<3, metasprite_tentacle_title);
;
	.dbg	line, "main.c", 1585
	jsr     decsp2
	lda     #$98
	ldy     #$01
	sta     (sp),y
	lda     #$70
	dey
	sta     (sp),y
	lda     #<(_metasprite_tentacle_title)
	ldx     #>(_metasprite_tentacle_title)
	jmp     _oam_meta_spr
	.dbg	line

.endproc

; ---------------------------------------------------------------
; void __near__ draw_gameplay_sprites (void)
; ---------------------------------------------------------------

.segment	"CODE"

.proc	_draw_gameplay_sprites: near

	.dbg	func, "draw_gameplay_sprites", "00", extern, "_draw_gameplay_sprites"

.segment	"BSS"

L0EED:
	.res	1,$00
L0EEE:
	.res	1,$00
L0EEF:
	.res	1,$00
L0EF0:
	.res	1,$00

.segment	"CODE"

;
; oam_clear();
;
	.dbg	line, "main.c", 1615
	jsr     _oam_clear
;
; local_start_x = (cur_block.x << 3) + BOARD_START_X_PX;
;
	.dbg	line, "main.c", 1621
	lda     _cur_block
	asl     a
	asl     a
	asl     a
	clc
	adc     #$60
	sta     _local_start_x
;
; local_start_y = (cur_block.y << 3) + BOARD_START_Y_PX;
;
	.dbg	line, "main.c", 1622
	lda     _cur_block+1
	asl     a
	asl     a
	asl     a
	clc
	adc     #$10
	sta     _local_start_y
;
; if (cur_block.y != 255)
;
	.dbg	line, "main.c", 1625
	lda     _cur_block+1
	cmp     #$FF
	beq     L1943
;
; for (i = 0; i < 4; ++i)
;
	.dbg	line, "main.c", 1627
	lda     #$00
	sta     L0EEF
L1942:	lda     L0EEF
	cmp     #$04
	bcs     L1943
;
; j = cur_cluster.layout[i];
;
	.dbg	line, "main.c", 1630
	ldy     L0EEF
	lda     _cur_cluster,y
	sta     L0EF0
;
; local_ix = morton_compact_one_by_one(j >> 0); //index_to_x_lookup[j];
;
	.dbg	line, "main.c", 1633
	jsr     _morton_compact_one_by_one
	sta     _local_ix
;
; local_iy = morton_compact_one_by_one(j >> 1); //index_to_y_lookup[j];
;
	.dbg	line, "main.c", 1634
	lda     L0EF0
	lsr     a
	jsr     _morton_compact_one_by_one
	sta     _local_iy
;
; if (local_start_y + (local_iy << 3) > OOB_TOP)
;
	.dbg	line, "main.c", 1639
	ldx     #$00
	lda     _local_iy
	jsr     aslax3
	clc
	adc     _local_start_y
	bcc     L193A
	inx
L193A:	sec
	sbc     _OOB_TOP
	sta     tmp1
	txa
	sbc     #$00
	ora     tmp1
	bcc     L0EFE
	beq     L0EFE
;
; oam_spr(local_start_x + (local_ix << 3), local_start_y + (local_iy << 3), cur_cluster.sprite, 0);
;
	.dbg	line, "main.c", 1641
	jsr     decsp3
	lda     _local_ix
	asl     a
	asl     a
	asl     a
	clc
	adc     _local_start_x
	ldy     #$02
	sta     (sp),y
	lda     _local_iy
	asl     a
	asl     a
	asl     a
	clc
	adc     _local_start_y
	dey
	sta     (sp),y
	lda     _cur_cluster+20
	dey
	sta     (sp),y
	tya
	jsr     _oam_spr
;
; for (i = 0; i < 4; ++i)
;
	.dbg	line, "main.c", 1627
L0EFE:	inc     L0EEF
	jmp     L1942
;
; if (attack_style != ATTACK_NEVER)
;
	.dbg	line, "main.c", 1648
L1943:	lda     _attack_style
	cmp     #$02
	jeq     L1949
;
; shake_offset = 0;
;
	.dbg	line, "main.c", 1650
	lda     #$00
	sta     L0EED
;
; if (attack_style == ATTACK_ON_TIME)
;
	.dbg	line, "main.c", 1651
	lda     _attack_style
	cmp     #$01
	bne     L1945
;
; if (attack_queue_ticks_remaining < 120)
;
	.dbg	line, "main.c", 1653
	lda     _attack_queue_ticks_remaining+1
	cmp     #$00
	bne     L0F20
	lda     _attack_queue_ticks_remaining
	cmp     #$78
L0F20:	bcs     L0F1E
;
; speed = tick_count >> 2;
;
	.dbg	line, "main.c", 1655
	lda     _tick_count
;
; else if (attack_queue_ticks_remaining < 300)
;
	.dbg	line, "main.c", 1657
	jmp     L1950
L0F1E:	lda     _attack_queue_ticks_remaining+1
	cmp     #$01
	bne     L0F26
	lda     _attack_queue_ticks_remaining
	cmp     #$2C
L0F26:	bcs     L1944
;
; speed = tick_count >> 3;
;
	.dbg	line, "main.c", 1659
	lda     _tick_count
;
; else
;
	.dbg	line, "main.c", 1661
	jmp     L1953
;
; speed = tick_count >> 5;
;
	.dbg	line, "main.c", 1663
L1944:	lda     _tick_count
	lsr     a
;
; else
;
	.dbg	line, "main.c", 1666
	jmp     L1956
;
; speed = tick_count >> 4;
;
	.dbg	line, "main.c", 1668
L1945:	lda     _tick_count
L1956:	lsr     a
L1953:	lsr     a
L1950:	lsr     a
	lsr     a
	sta     L0EEE
;
; for (local_ix = 0; local_ix < BOARD_WIDTH; ++local_ix)
;
	.dbg	line, "main.c", 1672
	lda     #$00
	sta     _local_ix
L1946:	lda     _local_ix
	cmp     #$0A
	jcs     L1949
;
; local_row_status = attack_row_status[local_ix];
;
	.dbg	line, "main.c", 1674
	ldy     _local_ix
	lda     _attack_row_status,y
	sta     _local_row_status
;
; if (local_row_status > 0)
;
	.dbg	line, "main.c", 1675
	lda     _local_row_status
	jeq     L1948
;
; for (local_iy = 0; local_iy < local_row_status /*&& local_iy < ATTACK_QUEUE_SIZE*/; ++local_iy)
;
	.dbg	line, "main.c", 1677
	lda     #$00
	sta     _local_iy
	tax
L1947:	lda     _local_iy
	cmp     _local_row_status
	jcs     L1948
;
; shake_offset = tentacle_offsets[((local_iy + speed) & 3)]; // &3 = %4 = number of entries in array.
;
	.dbg	line, "main.c", 1687
	clc
	adc     L0EEE
	and     #$03
	sta     ptr1
	txa
	clc
	adc     #>(_tentacle_offsets)
	sta     ptr1+1
	ldy     #<(_tentacle_offsets)
	lda     (ptr1),y
	sta     L0EED
;
; if (local_iy == local_row_status - 1)
;
	.dbg	line, "main.c", 1690
	lda     _local_row_status
	sec
	sbc     #$01
	bcs     L0F4D
	dex
L0F4D:	cpx     #$00
	bne     L0F4B
	cmp     _local_iy
	bne     L0F4B
;
; BOARD_START_X_PX + (local_ix << 3) + shake_offset,
;
	.dbg	line, "main.c", 1693
	jsr     decsp3
	lda     _local_ix
	asl     a
	asl     a
	asl     a
	clc
	adc     #$60
	clc
	adc     L0EED
	ldy     #$02
	sta     (sp),y
;
; (BOARD_END_Y_PX) + (ATTACK_QUEUE_SIZE << 3) - (local_iy << 3),
;
	.dbg	line, "main.c", 1694
	lda     #$E0
	jsr     pusha0
	lda     _local_iy
	jsr     aslax3
	jsr     tossubax
	ldy     #$01
	sta     (sp),y
;
; 0xf9,
;
	.dbg	line, "main.c", 1695
	lda     #$F9
;
; else
;
	.dbg	line, "main.c", 1698
	jmp     L1954
;
; BOARD_START_X_PX + (local_ix << 3) + shake_offset,
;
	.dbg	line, "main.c", 1701
L0F4B:	jsr     decsp3
	lda     _local_ix
	asl     a
	asl     a
	asl     a
	clc
	adc     #$60
	clc
	adc     L0EED
	ldy     #$02
	sta     (sp),y
;
; (BOARD_END_Y_PX) + (ATTACK_QUEUE_SIZE << 3) - (local_iy << 3),
;
	.dbg	line, "main.c", 1702
	lda     #$E0
	jsr     pusha0
	lda     _local_iy
	jsr     aslax3
	jsr     tossubax
	ldy     #$01
	sta     (sp),y
;
; 0xf8,
;
	.dbg	line, "main.c", 1703
	lda     #$F8
L1954:	dey
	sta     (sp),y
;
; 1);
;
	.dbg	line, "main.c", 1704
	lda     #$01
	jsr     _oam_spr
;
; for (local_iy = 0; local_iy < local_row_status /*&& local_iy < ATTACK_QUEUE_SIZE*/; ++local_iy)
;
	.dbg	line, "main.c", 1677
	ldx     #$00
	inc     _local_iy
	jmp     L1947
;
; for (local_ix = 0; local_ix < BOARD_WIDTH; ++local_ix)
;
	.dbg	line, "main.c", 1672
L1948:	inc     _local_ix
	jmp     L1946
;
; if (hit_reaction_remaining > 0)
;
	.dbg	line, "main.c", 1720
L1949:	lda     _hit_reaction_remaining
	beq     L194A
;
; oam_spr((3 << 3) /*+ r*/, (24 << 3), 0x65, 1);
;
	.dbg	line, "main.c", 1724
	jsr     decsp3
	lda     #$18
	ldy     #$02
	sta     (sp),y
	lda     #$C0
	dey
	sta     (sp),y
	lda     #$65
	dey
	sta     (sp),y
	lda     #$01
	jsr     _oam_spr
;
; oam_spr(3 << 3, 25 << 3, 0x64, 1);
;
	.dbg	line, "main.c", 1725
	jsr     decsp3
	lda     #$18
	ldy     #$02
	sta     (sp),y
	lda     #$C8
	dey
	sta     (sp),y
	lda     #$64
	dey
	sta     (sp),y
	lda     #$01
	jsr     _oam_spr
;
; oam_spr(3 << 3, 26 << 3, 0x74, 1);
;
	.dbg	line, "main.c", 1726
	jsr     decsp3
	lda     #$18
	ldy     #$02
	sta     (sp),y
	lda     #$D0
	dey
	sta     (sp),y
	lda     #$74
;
; else
;
	.dbg	line, "main.c", 1745
	jmp     L1955
;
; if (attack_style == ATTACK_NEVER)
;
	.dbg	line, "main.c", 1747
L194A:	lda     _attack_style
	cmp     #$02
	bne     L0F79
;
; oam_spr(3 << 3, 25 << 3, 0x63, 1);
;
	.dbg	line, "main.c", 1750
	jsr     decsp3
	lda     #$18
	ldy     #$02
	sta     (sp),y
	lda     #$C8
	dey
	sta     (sp),y
	lda     #$63
	dey
	sta     (sp),y
	lda     #$01
	jsr     _oam_spr
;
; oam_spr(3 << 3, 26 << 3, 0x73, 1);
;
	.dbg	line, "main.c", 1751
	jsr     decsp3
	lda     #$18
	ldy     #$02
	sta     (sp),y
	lda     #$D0
	dey
	sta     (sp),y
	lda     #$73
;
; else
;
	.dbg	line, "main.c", 1753
	jmp     L1955
;
; local_t = tick_count_large % BLINK_LEN;
;
	.dbg	line, "main.c", 1757
L0F79:	lda     _tick_count_large
	ldx     _tick_count_large+1
	jsr     pushax
	ldx     #$01
	lda     #$2C
	jsr     tosumodax
	sta     _local_t
	stx     _local_t+1
;
; if (local_t > BLINK_LEN - 5)
;
	.dbg	line, "main.c", 1759
	cmp     #$28
	txa
	sbc     #$01
;
; else if (local_t > (BLINK_LEN - 10))
;
	.dbg	line, "main.c", 1764
	bcs     L196A
	lda     _local_t
	cmp     #$23
	lda     _local_t+1
	sbc     #$01
	bcc     L0F97
;
; oam_spr(3 << 3, 25 << 3, 0x63, 1);
;
	.dbg	line, "main.c", 1766
	jsr     decsp3
	lda     #$18
	ldy     #$02
	sta     (sp),y
	lda     #$C8
	dey
	sta     (sp),y
	lda     #$63
	dey
	sta     (sp),y
	lda     #$01
	jsr     _oam_spr
;
; oam_spr(3 << 3, 26 << 3, 0x73, 1);
;
	.dbg	line, "main.c", 1767
	jsr     decsp3
	lda     #$18
	ldy     #$02
	sta     (sp),y
	lda     #$D0
	dey
	sta     (sp),y
	lda     #$73
;
; else if (local_t > BLINK_LEN - 15)
;
	.dbg	line, "main.c", 1769
	jmp     L1955
L0F97:	lda     _local_t
	cmp     #$1E
	lda     _local_t+1
	sbc     #$01
	bcc     L194B
;
; oam_spr(3 << 3, 25 << 3, 0x62, 1);
;
	.dbg	line, "main.c", 1771
L196A:	jsr     decsp3
	lda     #$18
	ldy     #$02
	sta     (sp),y
	lda     #$C8
	dey
	sta     (sp),y
	lda     #$62
	dey
	sta     (sp),y
	lda     #$01
	jsr     _oam_spr
;
; oam_spr(3 << 3, 26 << 3, 0x72, 1);
;
	.dbg	line, "main.c", 1772
	jsr     decsp3
	lda     #$18
	ldy     #$02
	sta     (sp),y
	lda     #$D0
	dey
	sta     (sp),y
	lda     #$72
L1955:	dey
	sta     (sp),y
	lda     #$01
	jsr     _oam_spr
;
; local_t = tick_count & 63;
;
	.dbg	line, "main.c", 1778
L194B:	lda     _tick_count
	ldx     #$00
	and     #$3F
	sta     _local_t
	stx     _local_t+1
;
; if (local_t > 48)
;
	.dbg	line, "main.c", 1779
	cmp     #$31
	bcc     L0FB5
;
; local_ix = 0x69;
;
	.dbg	line, "main.c", 1781
	lda     #$69
;
; else if (local_t > 32)
;
	.dbg	line, "main.c", 1783
	jmp     L1941
L0FB5:	lda     _local_t
	cmp     #$21
	lda     _local_t+1
	sbc     #$00
	bcc     L0FBA
;
; local_ix = 0x68;
;
	.dbg	line, "main.c", 1785
	lda     #$68
;
; else if (local_t > 16)
;
	.dbg	line, "main.c", 1787
	jmp     L1941
L0FBA:	lda     _local_t
	cmp     #$11
	lda     _local_t+1
	sbc     #$00
	bcc     L194C
;
; local_ix = 0x67;
;
	.dbg	line, "main.c", 1789
	lda     #$67
;
; else
;
	.dbg	line, "main.c", 1791
	jmp     L1941
;
; local_ix = 0x66;
;
	.dbg	line, "main.c", 1793
L194C:	lda     #$66
L1941:	sta     _local_ix
;
; oam_spr(8 << 3, 1 << 3, local_ix, 2);
;
	.dbg	line, "main.c", 1796
	jsr     decsp3
	lda     #$40
	ldy     #$02
	sta     (sp),y
	lda     #$08
	dey
	sta     (sp),y
	lda     _local_ix
	dey
	sta     (sp),y
	lda     #$02
	jsr     _oam_spr
;
; oam_spr(24 << 3, 1 << 3, local_ix, 2);
;
	.dbg	line, "main.c", 1797
	jsr     decsp3
	lda     #$C0
	ldy     #$02
	sta     (sp),y
	lda     #$08
	dey
	sta     (sp),y
	lda     _local_ix
	dey
	sta     (sp),y
	lda     #$02
	jsr     _oam_spr
;
; oam_spr(3 << 3, 10 << 3, local_ix, 0);
;
	.dbg	line, "main.c", 1798
	jsr     decsp3
	lda     #$18
	ldy     #$02
	sta     (sp),y
	lda     #$50
	dey
	sta     (sp),y
	lda     _local_ix
	dey
	sta     (sp),y
	tya
	jsr     _oam_spr
;
; oam_spr(27 << 3, 10 << 3, local_ix, 0);
;
	.dbg	line, "main.c", 1799
	jsr     decsp3
	lda     #$D8
	ldy     #$02
	sta     (sp),y
	lda     #$50
	dey
	sta     (sp),y
	lda     _local_ix
	dey
	sta     (sp),y
	tya
	jmp     _oam_spr
	.dbg	line

.endproc

; ---------------------------------------------------------------
; void __near__ movement (void)
; ---------------------------------------------------------------

.segment	"CODE"

.proc	_movement: near

	.dbg	func, "movement", "00", extern, "_movement"

.segment	"BSS"

L0FDB:
	.res	1,$00
L0FDC:
	.res	1,$00

.segment	"CODE"

;
; hit = 0;
;
	.dbg	line, "main.c", 1808
	lda     #$00
	sta     _hit
;
; temp_fall_frame_counter = 0;
;
	.dbg	line, "main.c", 1809
	sta     _temp_fall_frame_counter
;
; old_x = 0;
;
	.dbg	line, "main.c", 1810
	sta     _old_x
;
; delay_lock_skip = 0;
;
	.dbg	line, "main.c", 1811
	sta     _delay_lock_skip
;
; if (start_delay_remaining == 0)
;
	.dbg	line, "main.c", 1813
	lda     _start_delay_remaining
	bne     L1973
;
; --fall_frame_counter;
;
	.dbg	line, "main.c", 1815
	dec     _fall_frame_counter
;
; else
;
	.dbg	line, "main.c", 1817
	jmp     L1974
;
; --start_delay_remaining;
;
	.dbg	line, "main.c", 1819
L1973:	dec     _start_delay_remaining
;
; if (pad_all_new & PAD_SELECT)
;
	.dbg	line, "main.c", 1825
L1974:	lda     _pad_all_new
	and     #$20
	beq     L1975
;
; if (row_to_clear == -1)
;
	.dbg	line, "main.c", 1857
	lda     _row_to_clear
	cmp     #$FF
	bne     L1975
;
; attack_queued = 1;
;
	.dbg	line, "main.c", 1859
	lda     #$01
	sta     _attack_queued
;
; if (pad_all_new & PAD_A)
;
	.dbg	line, "main.c", 1865
L1975:	lda     _pad_all_new
	and     #$80
	beq     L1976
;
; rotate_cur_cluster(1);
;
	.dbg	line, "main.c", 1867
	lda     #$01
;
; else if (pad_all_new & PAD_B)
;
	.dbg	line, "main.c", 1869
	jmp     L196F
L1976:	lda     _pad_all_new
	and     #$40
	beq     L1977
;
; rotate_cur_cluster(-1);
;
	.dbg	line, "main.c", 1871
	lda     #$FF
L196F:	jsr     _rotate_cur_cluster
;
; if (horz_button_delay > 0)
;
	.dbg	line, "main.c", 1874
L1977:	lda     _horz_button_delay
	beq     L1978
;
; --horz_button_delay;
;
	.dbg	line, "main.c", 1876
	dec     _horz_button_delay
;
; old_x = cur_block.x;
;
	.dbg	line, "main.c", 1879
L1978:	lda     _cur_block
	sta     _old_x
;
; if (((pad_all & PAD_RIGHT) && horz_button_delay == 0) || (pad_all_new & PAD_RIGHT))
;
	.dbg	line, "main.c", 1880
	lda     _pad_all
	and     #$01
	beq     L197C
	lda     _horz_button_delay
	beq     L197F
L197C:	lda     _pad_all_new
	and     #$01
	beq     L1981
;
; horz_button_delay = button_delay;
;
	.dbg	line, "main.c", 1882
L197F:	lda     _button_delay
	sta     _horz_button_delay
;
; if ((pad_all_new & PAD_RIGHT))
;
	.dbg	line, "main.c", 1883
	lda     _pad_all_new
	and     #$01
	beq     L1980
;
; horz_button_delay <<= 1;
;
	.dbg	line, "main.c", 1885
	lda     _horz_button_delay
	asl     a
	sta     _horz_button_delay
;
; old_x = cur_block.x;
;
	.dbg	line, "main.c", 1890
L1980:	lda     _cur_block
	sta     _old_x
;
; cur_block.x += 1;
;
	.dbg	line, "main.c", 1891
	inc     _cur_block
;
; else if (((pad_all & PAD_LEFT) && horz_button_delay == 0) || pad_all_new & PAD_LEFT)
;
	.dbg	line, "main.c", 1900
	jmp     L19AC
L1981:	lda     _pad_all
	and     #$02
	beq     L1985
	lda     _horz_button_delay
	beq     L1988
L1985:	lda     _pad_all_new
	and     #$02
	beq     L198A
;
; horz_button_delay = button_delay;
;
	.dbg	line, "main.c", 1902
L1988:	lda     _button_delay
	sta     _horz_button_delay
;
; if ((pad_all_new & PAD_LEFT))
;
	.dbg	line, "main.c", 1903
	lda     _pad_all_new
	and     #$02
	beq     L1989
;
; horz_button_delay <<= 1;
;
	.dbg	line, "main.c", 1906
	lda     _horz_button_delay
	asl     a
	sta     _horz_button_delay
;
; old_x = cur_block.x;
;
	.dbg	line, "main.c", 1911
L1989:	lda     _cur_block
	sta     _old_x
;
; cur_block.x -= 1; // note: wrap around
;
	.dbg	line, "main.c", 1912
	dec     _cur_block
;
; old_is_last_rotate = is_last_rotate;
;
	.dbg	line, "main.c", 1918
L19AC:	lda     _is_last_rotate
	sta     L0FDC
;
; is_last_rotate = 0;
;
	.dbg	line, "main.c", 1919
	lda     #$00
	sta     _is_last_rotate
;
; if (cur_block.x != old_x && is_cluster_colliding())
;
	.dbg	line, "main.c", 1925
L198A:	lda     _old_x
	cmp     _cur_block
	beq     L198C
	jsr     _is_cluster_colliding
	tax
	beq     L198C
;
; cur_block.x = old_x;
;
	.dbg	line, "main.c", 1927
	lda     _old_x
	sta     _cur_block
;
; is_last_rotate = old_is_last_rotate;
;
	.dbg	line, "main.c", 1928
	lda     L0FDC
	sta     _is_last_rotate
;
; temp_fall_frame_counter = fall_frame_counter;
;
	.dbg	line, "main.c", 1955
L198C:	lda     _fall_frame_counter
	sta     _temp_fall_frame_counter
;
; hard_drop_performed = 0;
;
	.dbg	line, "main.c", 1957
	lda     #$00
	sta     L0FDB
;
; if (hard_drops_on && pad_all & PAD_UP && (pad_all & (PAD_LEFT | PAD_RIGHT)) == 0)
;
	.dbg	line, "main.c", 1958
	lda     _hard_drops_on
	beq     L1998
	lda     _pad_all
	and     #$08
	beq     L1998
	lda     _pad_all
	and     #$03
	bne     L1998
;
; if ((pad_all & PAD_UP && hard_drop_tap_required == 0) || pad_all_new & PAD_UP)
;
	.dbg	line, "main.c", 1960
	lda     _pad_all
	and     #$08
	beq     L1993
	lda     _hard_drop_tap_required
	beq     L1996
L1993:	lda     _pad_all_new
	and     #$08
	beq     L199B
;
; --hard_drop_hold_remaining;
;
	.dbg	line, "main.c", 1962
L1996:	dec     _hard_drop_hold_remaining
;
; if (hard_drop_hold_remaining == 0)
;
	.dbg	line, "main.c", 1964
	bne     L199B
;
; hard_drop_performed = 1;
;
	.dbg	line, "main.c", 1966
	lda     #$01
	sta     L0FDB
;
; hard_drop_tap_required = 1;
;
	.dbg	line, "main.c", 1967
	sta     _hard_drop_tap_required
;
; while (!is_cluster_colliding())
;
	.dbg	line, "main.c", 1970
	jmp     L104F
;
; ++cur_block.y;
;
	.dbg	line, "main.c", 1972
L1997:	inc     _cur_block+1
;
; while (!is_cluster_colliding())
;
	.dbg	line, "main.c", 1970
L104F:	jsr     _is_cluster_colliding
	tax
	beq     L1997
;
; old_is_last_rotate = is_last_rotate;
;
	.dbg	line, "main.c", 1974
	lda     _is_last_rotate
	sta     L0FDC
;
; is_last_rotate = 0;
;
	.dbg	line, "main.c", 1975
	lda     #$00
	sta     _is_last_rotate
;
; delay_lock_skip = 1;
;
	.dbg	line, "main.c", 1977
	lda     #$01
	sta     _delay_lock_skip
;
; else
;
	.dbg	line, "main.c", 1985
	jmp     L199B
;
; if ((pad_all & (PAD_LEFT | PAD_RIGHT)) == 0)
;
	.dbg	line, "main.c", 1987
L1998:	lda     _pad_all
	and     #$03
	bne     L1999
;
; hard_drop_tap_required = 0;
;
	.dbg	line, "main.c", 1989
	sta     _hard_drop_tap_required
;
; if (hard_drops_on == 1) // tap
;
	.dbg	line, "main.c", 1991
L1999:	lda     _hard_drops_on
	cmp     #$01
;
; else if (hard_drops_on == 2) // hold
;
	.dbg	line, "main.c", 1995
	beq     L1971
	cmp     #$02
	bne     L199B
;
; hard_drop_hold_remaining = HARD_DROP_HOLD_TIME;
;
	.dbg	line, "main.c", 1997
L1971:	sta     _hard_drop_hold_remaining
;
; if (hard_drop_performed == 0)
;
	.dbg	line, "main.c", 2001
L199B:	lda     L0FDB
	bne     L19A5
;
; if (pad_all_new & PAD_DOWN || delay_lock_remaining != -1)
;
	.dbg	line, "main.c", 2006
	lda     _pad_all_new
	and     #$04
	bne     L199C
	lda     _delay_lock_remaining
	cmp     #$FF
	beq     L199F
;
; if (pad_all_new & PAD_DOWN)
;
	.dbg	line, "main.c", 2008
L199C:	lda     _pad_all_new
	and     #$04
	beq     L199E
;
; delay_lock_skip = 1;
;
	.dbg	line, "main.c", 2011
	lda     #$01
	sta     _delay_lock_skip
;
; require_new_down_button = 0;
;
	.dbg	line, "main.c", 2013
	lda     #$00
L199E:	sta     _require_new_down_button
;
; else if ((pad_all & PAD_DOWN) && require_new_down_button == 0)
;
	.dbg	line, "main.c", 2018
	jmp     L1972
L199F:	lda     _pad_all
	and     #$04
	beq     L19A4
	lda     _require_new_down_button
	bne     L19A4
;
; fall_frame_counter = MIN(fall_frame_counter, 1);
;
	.dbg	line, "main.c", 2021
	lda     _fall_frame_counter
	bne     L19A3
	jmp     L1972
L19A3:	lda     #$01
L1972:	sta     _fall_frame_counter
;
; if (fall_frame_counter == 0)
;
	.dbg	line, "main.c", 2024
L19A4:	lda     _fall_frame_counter
	bne     L19A5
;
; start_delay_remaining = 0;
;
	.dbg	line, "main.c", 2029
	sta     _start_delay_remaining
;
; cur_block.y += 1;
;
	.dbg	line, "main.c", 2031
	inc     _cur_block+1
;
; old_is_last_rotate = is_last_rotate;
;
	.dbg	line, "main.c", 2032
	lda     _is_last_rotate
	sta     L0FDC
;
; is_last_rotate = 0;
;
	.dbg	line, "main.c", 2033
	lda     #$00
	sta     _is_last_rotate
;
; fall_frame_counter = fall_rate;
;
	.dbg	line, "main.c", 2034
	lda     _fall_rate
	sta     _fall_frame_counter
;
; if (fall_rate > DELAY_LOCK_LEN)
;
	.dbg	line, "main.c", 2040
L19A5:	lda     _fall_rate
	cmp     #$10
	lda     #$00
	bcc     L19A7
;
; delay_lock_skip = 1;
;
	.dbg	line, "main.c", 2042
	lda     #$01
	sta     _delay_lock_skip
;
; hit = 0;
;
	.dbg	line, "main.c", 2047
	lda     #$00
L19A7:	sta     _hit
;
; if (is_cluster_colliding())
;
	.dbg	line, "main.c", 2050
	jsr     _is_cluster_colliding
	tax
	beq     L109A
;
; if (delay_lock_remaining == -1)
;
	.dbg	line, "main.c", 2052
	lda     _delay_lock_remaining
	cmp     #$FF
	bne     L109C
;
; delay_lock_remaining = DELAY_LOCK_LEN - fall_rate;
;
	.dbg	line, "main.c", 2054
	lda     #$0F
	sec
	sbc     _fall_rate
	cmp     #$80
	sta     _delay_lock_remaining
;
; --delay_lock_remaining;
;
	.dbg	line, "main.c", 2060
L109C:	dec     _delay_lock_remaining
;
; cur_block.y -= 1;
;
	.dbg	line, "main.c", 2066
	dec     _cur_block+1
;
; if (delay_lock_remaining == 0 || delay_lock_skip)
;
	.dbg	line, "main.c", 2067
	lda     _delay_lock_remaining
	beq     L10A7
	lda     _delay_lock_skip
	beq     L10B0
;
; hit = 1;
;
	.dbg	line, "main.c", 2069
L10A7:	lda     #$01
	sta     _hit
;
; is_last_rotate = old_is_last_rotate;
;
	.dbg	line, "main.c", 2070
	lda     L0FDC
	sta     _is_last_rotate
;
; delay_lock_remaining = -1;
;
	.dbg	line, "main.c", 2076
L109A:	lda     #$FF
	sta     _delay_lock_remaining
;
; if (hit)
;
	.dbg	line, "main.c", 2079
L10B0:	lda     _hit
	beq     L10B3
;
; is_tspin = check_tspin();
;
	.dbg	line, "main.c", 2081
	jsr     _check_tspin
	sta     _is_tspin
;
; put_cur_cluster();
;
	.dbg	line, "main.c", 2082
	jsr     _put_cur_cluster
;
; delay_spawn_remaining = DELAY_SPAWN_LEN;
;
	.dbg	line, "main.c", 2085
	lda     #$05
	sta     _delay_spawn_remaining
;
; }
;
	.dbg	line, "main.c", 2088
L10B3:	rts
	.dbg	line

.endproc

; ---------------------------------------------------------------
; void __near__ set_block (void)
; ---------------------------------------------------------------

.segment	"CODE"

.proc	_set_block: near

	.dbg	func, "set_block", "00", extern, "_set_block"

.segment	"CODE"

;
; if (in_y <= BOARD_OOB_END)
;
	.dbg	line, "main.c", 2097
	lda     _in_y
	cmp     #$04
;
; return;
;
	.dbg	line, "main.c", 2100
	bcc     L10BA
;
; address = get_ppu_addr(cur_nt, (in_x << 3) + BOARD_START_X_PX, (in_y << 3) + BOARD_START_Y_PX);
;
	.dbg	line, "main.c", 2103
	jsr     decsp2
	lda     _cur_nt
	ldy     #$01
	sta     (sp),y
	lda     _in_x
	asl     a
	asl     a
	asl     a
	clc
	adc     #$60
	dey
	sta     (sp),y
	lda     _in_y
	asl     a
	asl     a
	asl     a
	clc
	adc     #$10
	jsr     _get_ppu_addr
	sta     _address
	stx     _address+1
;
; one_vram_buffer(in_id, address);
;
	.dbg	line, "main.c", 2104
	lda     _in_id
	jsr     pusha
	lda     _address
	ldx     _address+1
	jsr     _one_vram_buffer
;
; game_board[TILE_TO_BOARD_INDEX(in_x, in_y)] = in_id;
;
	.dbg	line, "main.c", 2107
	ldy     _in_y
	ldx     #$00
	lda     _board_lookup_y,y
	clc
	adc     _in_x
	bcc     L19AE
	inx
	clc
L19AE:	adc     #<(_game_board)
	sta     ptr1
	txa
	adc     #>(_game_board)
	sta     ptr1+1
	lda     _in_id
	ldy     #$00
	sta     (ptr1),y
;
; }
;
	.dbg	line, "main.c", 2108
L10BA:	rts
	.dbg	line

.endproc

; ---------------------------------------------------------------
; void __near__ set_block_nt (unsigned char, unsigned char, unsigned char, unsigned char)
; ---------------------------------------------------------------

.segment	"CODE"

.proc	_set_block_nt: near

	.dbg	func, "set_block_nt", "00", extern, "_set_block_nt"
	.dbg	sym, "x", "00", auto, 3
	.dbg	sym, "y", "00", auto, 2
	.dbg	sym, "id", "00", auto, 1
	.dbg	sym, "nt", "00", auto, 0

.segment	"CODE"

;
; {
;
	.dbg	line, "main.c", 2111
	jsr     pusha
;
; if (y <= BOARD_OOB_END)
;
	.dbg	line, "main.c", 2112
	ldy     #$02
	lda     (sp),y
	cmp     #$04
;
; return;
;
	.dbg	line, "main.c", 2115
	bcc     L10D2
;
; address = get_ppu_addr(nt, (x << 3) + BOARD_START_X_PX, (y << 3) + BOARD_START_Y_PX);
;
	.dbg	line, "main.c", 2118
	jsr     decsp2
	lda     (sp),y
	dey
	sta     (sp),y
	ldy     #$05
	lda     (sp),y
	asl     a
	asl     a
	asl     a
	clc
	adc     #$60
	ldy     #$00
	sta     (sp),y
	ldy     #$04
	lda     (sp),y
	asl     a
	asl     a
	asl     a
	clc
	adc     #$10
	jsr     _get_ppu_addr
	sta     _address
	stx     _address+1
;
; one_vram_buffer(id, address);
;
	.dbg	line, "main.c", 2119
	ldy     #$01
	lda     (sp),y
	jsr     pusha
	lda     _address
	ldx     _address+1
	jsr     _one_vram_buffer
;
; game_board[TILE_TO_BOARD_INDEX(x, y)] = id;
;
	.dbg	line, "main.c", 2121
	ldy     #$02
	lda     (sp),y
	tay
	lda     _board_lookup_y,y
	sta     ptr1
	ldx     #$00
	ldy     #$03
	lda     (sp),y
	clc
	adc     ptr1
	bcc     L19B0
	inx
	clc
L19B0:	adc     #<(_game_board)
	sta     ptr1
	txa
	adc     #>(_game_board)
	sta     ptr1+1
	ldy     #$01
	lda     (sp),y
	dey
	sta     (ptr1),y
;
; }
;
	.dbg	line, "main.c", 2122
L10D2:	jmp     incsp4
	.dbg	line

.endproc

; ---------------------------------------------------------------
; void __near__ clear_block (unsigned char, unsigned char)
; ---------------------------------------------------------------

.segment	"CODE"

.proc	_clear_block: near

	.dbg	func, "clear_block", "00", extern, "_clear_block"
	.dbg	sym, "x", "00", auto, 1
	.dbg	sym, "y", "00", auto, 0

.segment	"CODE"

;
; {
;
	.dbg	line, "main.c", 2125
	jsr     pusha
;
; in_x = x;
;
	.dbg	line, "main.c", 2126
	ldy     #$01
	lda     (sp),y
	sta     _in_x
;
; in_y = y;
;
	.dbg	line, "main.c", 2127
	dey
	lda     (sp),y
	sta     _in_y
;
; in_id = 0;
;
	.dbg	line, "main.c", 2128
	sty     _in_id
;
; set_block();
;
	.dbg	line, "main.c", 2129
	jsr     _set_block
;
; }
;
	.dbg	line, "main.c", 2130
	jmp     incsp2
	.dbg	line

.endproc

; ---------------------------------------------------------------
; void __near__ put_cur_cluster (void)
; ---------------------------------------------------------------

.segment	"CODE"

.proc	_put_cur_cluster: near

	.dbg	func, "put_cur_cluster", "00", extern, "_put_cur_cluster"

.segment	"BSS"

L10F3:
	.res	1,$00
L10F4:
	.res	1,$00

.segment	"CODE"

;
; max_y = 0;
;
	.dbg	line, "main.c", 2139
	lda     #$00
	sta     _max_y
;
; min_y = 0xff; // max
;
	.dbg	line, "main.c", 2140
	lda     #$FF
	sta     _min_y
;
; for (i = 0; i < 4; ++i)
;
	.dbg	line, "main.c", 2142
	lda     #$00
	sta     L10F3
L19B3:	lda     L10F3
	cmp     #$04
	bcs     L10FA
;
; j = cur_cluster.layout[i];
;
	.dbg	line, "main.c", 2145
	ldy     L10F3
	lda     _cur_cluster,y
	sta     L10F4
;
; local_ix = morton_compact_one_by_one(j >> 0); //index_to_x_lookup[j];
;
	.dbg	line, "main.c", 2148
	jsr     _morton_compact_one_by_one
	sta     _local_ix
;
; local_iy = morton_compact_one_by_one(j >> 1); //index_to_y_lookup[j];
;
	.dbg	line, "main.c", 2149
	lda     L10F4
	lsr     a
	jsr     _morton_compact_one_by_one
	sta     _local_iy
;
; in_x = cur_block.x + local_ix;
;
	.dbg	line, "main.c", 2153
	lda     _cur_block
	clc
	adc     _local_ix
	sta     _in_x
;
; in_y = cur_block.y + local_iy;
;
	.dbg	line, "main.c", 2154
	lda     _cur_block+1
	clc
	adc     _local_iy
	sta     _in_y
;
; in_id = cur_cluster.sprite;
;
	.dbg	line, "main.c", 2155
	lda     _cur_cluster+20
	sta     _in_id
;
; if (in_y < min_y)
;
	.dbg	line, "main.c", 2159
	lda     _in_y
	cmp     _min_y
	bcs     L19B4
;
; min_y = in_y;
;
	.dbg	line, "main.c", 2161
	sta     _min_y
;
; if (in_y > max_y)
;
	.dbg	line, "main.c", 2163
L19B4:	lda     _in_y
	sec
	sbc     _max_y
	bcc     L1115
	beq     L1115
;
; max_y = in_y;
;
	.dbg	line, "main.c", 2165
	lda     _in_y
	sta     _max_y
;
; set_block();
;
	.dbg	line, "main.c", 2168
L1115:	jsr     _set_block
;
; for (i = 0; i < 4; ++i)
;
	.dbg	line, "main.c", 2142
	inc     L10F3
	jmp     L19B3
;
; SFX_PLAY_WRAPPER(SOUND_LAND);
;
	.dbg	line, "main.c", 2173
L10FA:	lda     _sfx_on
	beq     L19B5
	lda     #$01
	jsr     pusha
	lda     #$00
	jsr     _sfx_play
;
; cur_block.y = 255;
;
	.dbg	line, "main.c", 2186
L19B5:	lda     #$FF
	sta     _cur_block+1
;
; oam_set(0);
;
	.dbg	line, "main.c", 2190
	lda     #$00
	jsr     _oam_set
;
; oam_spr(0, 0, 0, 0);
;
	.dbg	line, "main.c", 2192
	jsr     decsp3
	lda     #$00
	ldy     #$02
	sta     (sp),y
	dey
	sta     (sp),y
	dey
	sta     (sp),y
	jsr     _oam_spr
;
; oam_spr(0, 0, 0, 0);
;
	.dbg	line, "main.c", 2193
	jsr     decsp3
	lda     #$00
	ldy     #$02
	sta     (sp),y
	dey
	sta     (sp),y
	dey
	sta     (sp),y
	jsr     _oam_spr
;
; oam_spr(0, 0, 0, 0);
;
	.dbg	line, "main.c", 2194
	jsr     decsp3
	lda     #$00
	ldy     #$02
	sta     (sp),y
	dey
	sta     (sp),y
	dey
	sta     (sp),y
	jsr     _oam_spr
;
; oam_spr(0, 0, 0, 0);
;
	.dbg	line, "main.c", 2195
	jsr     decsp3
	lda     #$00
	ldy     #$02
	sta     (sp),y
	dey
	sta     (sp),y
	dey
	sta     (sp),y
	jsr     _oam_spr
;
; if (attack_style == ATTACK_ON_LAND)
;
	.dbg	line, "main.c", 2198
	lda     _attack_style
	bne     L1138
;
; attack_queued = 1;
;
	.dbg	line, "main.c", 2200
	lda     #$01
	sta     _attack_queued
;
; clear_rows_in_data(max_y);
;
	.dbg	line, "main.c", 2209
L1138:	lda     _max_y
	jmp     _clear_rows_in_data
	.dbg	line

.endproc

; ---------------------------------------------------------------
; unsigned char __near__ is_cluster_colliding (void)
; ---------------------------------------------------------------

.segment	"CODE"

.proc	_is_cluster_colliding: near

	.dbg	func, "is_cluster_colliding", "00", extern, "_is_cluster_colliding"

.segment	"BSS"

L114F:
	.res	1,$00
L1150:
	.res	1,$00
L1151:
	.res	1,$00
L1152:
	.res	1,$00

.segment	"CODE"

;
; for (i = 0; i < 4; ++i)
;
	.dbg	line, "main.c", 2238
	lda     #$00
	sta     L1151
	tax
L19B9:	lda     L1151
	cmp     #$04
	bcs     L19BC
;
; j = cur_cluster.layout[i];
;
	.dbg	line, "main.c", 2241
	ldy     L1151
	lda     _cur_cluster,y
	sta     L1152
;
; local_ix = morton_compact_one_by_one(j >> 0); //index_to_x_lookup[j];
;
	.dbg	line, "main.c", 2244
	jsr     _morton_compact_one_by_one
	sta     _local_ix
;
; local_iy = morton_compact_one_by_one(j >> 1); //index_to_y_lookup[j];
;
	.dbg	line, "main.c", 2245
	lda     L1152
	lsr     a
	jsr     _morton_compact_one_by_one
	sta     _local_iy
;
; x = cur_block.x + local_ix;
;
	.dbg	line, "main.c", 2247
	lda     _cur_block
	clc
	adc     _local_ix
	sta     L114F
;
; y = cur_block.y + local_iy;
;
	.dbg	line, "main.c", 2248
	lda     _cur_block+1
	clc
	adc     _local_iy
	sta     L1150
;
; if (y > BOARD_END_Y_PX_BOARD || x > BOARD_END_X_PX_BOARD)
;
	.dbg	line, "main.c", 2250
	cmp     #$18
	bcs     L19BA
	lda     L114F
	cmp     #$0A
	bcc     L1169
;
; return 1;
;
	.dbg	line, "main.c", 2253
L19BA:	ldx     #$00
	lda     #$01
	rts
;
; if (game_board[TILE_TO_BOARD_INDEX(x, y)]) // != 5 && game_board[TILE_TO_BOARD_INDEX(x,y)] != 0)
;
	.dbg	line, "main.c", 2257
L1169:	ldy     L1150
	ldx     #$00
	lda     _board_lookup_y,y
	clc
	adc     L114F
	bcc     L19B8
	inx
L19B8:	sta     ptr1
	txa
	clc
	adc     #>(_game_board)
	sta     ptr1+1
	ldy     #<(_game_board)
	ldx     #$00
	lda     (ptr1),y
	beq     L19BB
;
; return 1;
;
	.dbg	line, "main.c", 2259
	lda     #$01
	rts
;
; for (i = 0; i < 4; ++i)
;
	.dbg	line, "main.c", 2238
L19BB:	inc     L1151
	jmp     L19B9
;
; return 0;
;
	.dbg	line, "main.c", 2263
L19BC:	txa
;
; }
;
	.dbg	line, "main.c", 2264
	rts
	.dbg	line

.endproc

; ---------------------------------------------------------------
; unsigned char __near__ morton_compact_one_by_one (unsigned char)
; ---------------------------------------------------------------

.segment	"CODE"

.proc	_morton_compact_one_by_one: near

	.dbg	func, "morton_compact_one_by_one", "00", extern, "_morton_compact_one_by_one"
	.dbg	sym, "x", "00", auto, 0

.segment	"CODE"

;
; {
;
	.dbg	line, "main.c", 2475
	jsr     pusha
;
; x &= 0x55;
;
	.dbg	line, "main.c", 2476
	ldy     #$00
	lda     (sp),y
	and     #$55
	sta     (sp),y
;
; x = ((x ^ (x >> 1)) & 0x33);
;
	.dbg	line, "main.c", 2477
	lsr     a
	eor     (sp),y
	and     #$33
	sta     (sp),y
;
; x = ((x ^ (x >> 2)) & 0x0f);
;
	.dbg	line, "main.c", 2478
	lsr     a
	lsr     a
	eor     (sp),y
	and     #$0F
	sta     (sp),y
;
; return x;
;
	.dbg	line, "main.c", 2479
	ldx     #$00
	lda     (sp),y
;
; }
;
	.dbg	line, "main.c", 2480
	jmp     incsp1
	.dbg	line

.endproc

; ---------------------------------------------------------------
; void __near__ spawn_new_cluster (void)
; ---------------------------------------------------------------

.segment	"CODE"

.proc	_spawn_new_cluster: near

	.dbg	func, "spawn_new_cluster", "00", extern, "_spawn_new_cluster"

.segment	"BSS"

L1179:
	.res	1,$00
L117A:
	.res	1,$00

.segment	"CODE"

;
; id = 0;
;
	.dbg	line, "main.c", 2271
	lda     #$00
	sta     _id
;
; delay_lock_remaining = -1;
;
	.dbg	line, "main.c", 2273
	lda     #$FF
	sta     _delay_lock_remaining
;
; require_new_down_button = 1;
;
	.dbg	line, "main.c", 2275
	lda     #$01
	sta     _require_new_down_button
;
; fall_frame_counter = fall_rate;
;
	.dbg	line, "main.c", 2276
	lda     _fall_rate
	sta     _fall_frame_counter
;
; cur_rot = 0;
;
	.dbg	line, "main.c", 2278
	lda     #$00
	sta     _cur_rot
;
; is_last_rotate = 0;
;
	.dbg	line, "main.c", 2279
	sta     _is_last_rotate
;
; memcpy(cur_cluster.def, next_cluster.def, 4 * 4);
;
	.dbg	line, "main.c", 2282
	ldy     #$0F
L118B:	lda     _next_cluster+4,y
	sta     _cur_cluster+4,y
	dey
	bpl     L118B
;
; memcpy(cur_cluster.layout, cur_cluster.def[0], 4);
;
	.dbg	line, "main.c", 2283
	ldy     #$03
L1191:	lda     _cur_cluster+4,y
	sta     _cur_cluster,y
	dey
	bpl     L1191
;
; cur_cluster.sprite = next_cluster.sprite;
;
	.dbg	line, "main.c", 2284
	lda     _next_cluster+20
	sta     _cur_cluster+20
;
; cur_cluster.id = next_cluster.id;
;
	.dbg	line, "main.c", 2285
	lda     _next_cluster+21
	sta     _cur_cluster+21
;
; cur_block.x = 3; //(BOARD_END_Y_PX_BOARD >> 1);
;
	.dbg	line, "main.c", 2288
	lda     #$03
	sta     _cur_block
;
; cur_block.y = cluster_offsets[cur_cluster.id];
;
	.dbg	line, "main.c", 2289
	ldy     _cur_cluster+21
	lda     _cluster_offsets,y
	sta     _cur_block+1
;
; if (bag_index == 0)
;
	.dbg	line, "main.c", 2303
	lda     _bag_index
	bne     L119C
;
; randomize_bag(bag, NUM_CLUSTERS);
;
	.dbg	line, "main.c", 2305
	lda     #<(_bag)
	ldx     #>(_bag)
	jsr     pushax
	lda     #$07
	jsr     _randomize_bag
;
; id = bag[bag_index];
;
	.dbg	line, "main.c", 2307
L119C:	ldy     _bag_index
	lda     _bag,y
	sta     _id
;
; if (id == cur_cluster.id) //Avoid duplicates reshuffle bag
;
	.dbg	line, "main.c", 2308
	ldx     #$00
	lda     _cur_cluster+21
	cmp     _id
	bne     L19C1
;
; randomize_bag(bag, NUM_CLUSTERS);
;
	.dbg	line, "main.c", 2310
	lda     #<(_bag)
	ldx     #>(_bag)
	jsr     pushax
	lda     #$07
	jsr     _randomize_bag
;
; id = bag[bag_index];
;
	.dbg	line, "main.c", 2311
	ldy     _bag_index
	lda     _bag,y
	sta     _id
;
; bag_index = (bag_index + 1 == NUM_CLUSTERS ? 0 : bag_index + 1);
;
	.dbg	line, "main.c", 2313
	ldx     #$00
L19C1:	lda     _bag_index
	clc
	adc     #$01
	bcc     L11B1
	inx
L11B1:	cpx     #$00
	bne     L11B3
	cmp     #$07
	bne     L11B3
	txa
	jmp     L19C2
L11B3:	lda     _bag_index
	clc
	adc     #$01
L19C2:	sta     _bag_index
;
; next_cluster.id = id;
;
	.dbg	line, "main.c", 2315
	lda     _id
	sta     _next_cluster+21
;
; memcpy(next_cluster.def, cluster_defs_classic[id], (4 * 4));
;
	.dbg	line, "main.c", 2316
	lda     #<(_next_cluster+4)
	ldx     #>(_next_cluster+4)
	jsr     pushax
	ldx     #$00
	lda     _id
	asl     a
	bcc     L19C0
	inx
	clc
L19C0:	adc     #<(_cluster_defs_classic)
	sta     ptr1
	txa
	adc     #>(_cluster_defs_classic)
	sta     ptr1+1
	ldy     #$01
	lda     (ptr1),y
	tax
	dey
	lda     (ptr1),y
	jsr     pushax
	ldx     #$00
	lda     #$10
	jsr     _memcpy
;
; memcpy(next_cluster.layout, next_cluster.def[0], 4);
;
	.dbg	line, "main.c", 2317
	ldy     #$03
L11C5:	lda     _next_cluster+4,y
	sta     _next_cluster,y
	dey
	bpl     L11C5
;
; next_cluster.sprite = cluster_sprites[id];
;
	.dbg	line, "main.c", 2318
	ldy     _id
	lda     _cluster_sprites,y
	sta     _next_cluster+20
;
; local_iy = 0;
;
	.dbg	line, "main.c", 2322
	lda     #$00
	sta     _local_iy
;
; local_ix = 0;
;
	.dbg	line, "main.c", 2323
	sta     _local_ix
;
; local_t = next_cluster.sprite;
;
	.dbg	line, "main.c", 2324
	sta     _local_t+1
	lda     _next_cluster+20
	sta     _local_t
;
; multi_vram_buffer_horz(empty_row, 4, get_ppu_addr(cur_nt, 120, 16));
;
	.dbg	line, "main.c", 2327
	jsr     decsp3
	lda     #<(_empty_row)
	ldy     #$01
	sta     (sp),y
	iny
	lda     #>(_empty_row)
	sta     (sp),y
	lda     #$04
	ldy     #$00
	sta     (sp),y
	jsr     decsp2
	lda     _cur_nt
	iny
	sta     (sp),y
	lda     #$78
	dey
	sta     (sp),y
	lda     #$10
	jsr     _get_ppu_addr
	jsr     _multi_vram_buffer_horz
;
; multi_vram_buffer_horz(empty_row, 4, get_ppu_addr(cur_nt, 120, 24));
;
	.dbg	line, "main.c", 2328
	jsr     decsp3
	lda     #<(_empty_row)
	ldy     #$01
	sta     (sp),y
	iny
	lda     #>(_empty_row)
	sta     (sp),y
	lda     #$04
	ldy     #$00
	sta     (sp),y
	jsr     decsp2
	lda     _cur_nt
	iny
	sta     (sp),y
	lda     #$78
	dey
	sta     (sp),y
	lda     #$18
	jsr     _get_ppu_addr
	jsr     _multi_vram_buffer_horz
;
; for (i = 0; i < 4; ++i)
;
	.dbg	line, "main.c", 2330
	lda     #$00
	sta     L1179
L19C3:	lda     L1179
	cmp     #$04
	bcs     L19C5
;
; j = next_cluster.layout[i];
;
	.dbg	line, "main.c", 2333
	ldy     L1179
	lda     _next_cluster,y
	sta     L117A
;
; local_ix = morton_compact_one_by_one(j >> 0); //index_to_x_lookup[j];
;
	.dbg	line, "main.c", 2336
	jsr     _morton_compact_one_by_one
	sta     _local_ix
;
; local_iy = morton_compact_one_by_one(j >> 1); //index_to_y_lookup[j];
;
	.dbg	line, "main.c", 2337
	lda     L117A
	lsr     a
	jsr     _morton_compact_one_by_one
	sta     _local_iy
;
; one_vram_buffer(local_t, get_ppu_addr(cur_nt, 120 + (local_ix << 3), (next_cluster.id != 3 ? 16 : 8) + (local_iy << 3))); //8 + (local_iy << 3)
;
	.dbg	line, "main.c", 2339
	lda     _local_t
	jsr     pusha
	jsr     decsp2
	lda     _cur_nt
	ldy     #$01
	sta     (sp),y
	lda     _local_ix
	asl     a
	asl     a
	asl     a
	clc
	adc     #$78
	dey
	sta     (sp),y
	lda     _next_cluster+21
	cmp     #$03
	beq     L19C4
	lda     #$10
	jmp     L11FB
L19C4:	lda     #$08
L11FB:	sta     ptr1
	lda     _local_iy
	asl     a
	asl     a
	asl     a
	clc
	adc     ptr1
	jsr     _get_ppu_addr
	jsr     _one_vram_buffer
;
; for (i = 0; i < 4; ++i)
;
	.dbg	line, "main.c", 2330
	inc     L1179
	jmp     L19C3
;
; if (state != STATE_OVER && is_cluster_colliding())
;
	.dbg	line, "main.c", 2347
L19C5:	lda     _state
	cmp     #$06
	beq     L19C6
	jsr     _is_cluster_colliding
	tax
	bne     L11FF
L19C6:	rts
;
; put_cur_cluster();
;
	.dbg	line, "main.c", 2351
L11FF:	jsr     _put_cur_cluster
;
; go_to_state(STATE_OVER);
;
	.dbg	line, "main.c", 2352
	lda     #$06
	jmp     _go_to_state
	.dbg	line

.endproc

; ---------------------------------------------------------------
; void __near__ rotate_cur_cluster (unsigned char)
; ---------------------------------------------------------------

.segment	"CODE"

.proc	_rotate_cur_cluster: near

	.dbg	func, "rotate_cur_cluster", "00", extern, "_rotate_cur_cluster"
	.dbg	sym, "dir", "00", auto, 0

.segment	"BSS"

L121E:
	.res	1,$00
L121F:
	.res	1,$00
L1220:
	.res	1,$00

.segment	"CODE"

;
; {
;
	.dbg	line, "main.c", 2387
	jsr     pusha
;
; old_rot = cur_rot;
;
	.dbg	line, "main.c", 2390
	lda     _cur_rot
	sta     L121E
;
; old_is_last_rotate = is_last_rotate;
;
	.dbg	line, "main.c", 2391
	lda     _is_last_rotate
	sta     L121F
;
; cur_rot = (cur_rot + dir) & 3; // % 4
;
	.dbg	line, "main.c", 2392
	ldy     #$00
	lda     (sp),y
	clc
	adc     _cur_rot
	and     #$03
	sta     _cur_rot
;
; memcpy(cur_cluster.layout, cur_cluster.def[cur_rot], 4);
;
	.dbg	line, "main.c", 2394
	lda     #<(_cur_cluster)
	ldx     #>(_cur_cluster)
	jsr     pushax
	ldx     #$00
	lda     _cur_rot
	jsr     aslax2
	clc
	adc     #<(_cur_cluster+4)
	tay
	txa
	adc     #>(_cur_cluster+4)
	tax
	tya
	jsr     pushax
	ldx     #$00
	lda     #$04
	jsr     _memcpy
;
; if (is_cluster_colliding())
;
	.dbg	line, "main.c", 2396
	jsr     _is_cluster_colliding
	tax
	jeq     L19DA
;
; if (cur_cluster.id != 2) //Is not line cluster
;
	.dbg	line, "main.c", 2398
	lda     _cur_cluster+21
	cmp     #$02
	jeq     L19D2
;
; if (((old_rot == 0) & (cur_rot == 1)) || ((old_rot == 2) & (cur_rot == 1)))
;
	.dbg	line, "main.c", 2400
	lda     L121E
	jsr     booleq
	jsr     pusha0
	lda     _cur_rot
	cmp     #$01
	jsr     booleq
	jsr     tosanda0
	cmp     #$00
	bne     L19CB
	lda     L121E
	cmp     #$02
	jsr     booleq
	jsr     pusha0
	lda     _cur_rot
	cmp     #$01
	jsr     booleq
	jsr     tosanda0
	cmp     #$00
	beq     L19CC
;
; result = rotate_srs(0);
;
	.dbg	line, "main.c", 2402
L19CB:	lda     #$00
;
; else if (((old_rot == 1) & (cur_rot == 0)) || ((old_rot == 1) & (cur_rot == 2)))
;
	.dbg	line, "main.c", 2404
	jmp     L19DC
L19CC:	lda     L121E
	cmp     #$01
	jsr     booleq
	jsr     pusha0
	lda     _cur_rot
	jsr     booleq
	jsr     tosanda0
	cmp     #$00
	bne     L19CD
	lda     L121E
	cmp     #$01
	jsr     booleq
	jsr     pusha0
	lda     _cur_rot
	cmp     #$02
	jsr     booleq
	jsr     tosanda0
	cmp     #$00
	beq     L19CE
;
; result = rotate_srs(1);
;
	.dbg	line, "main.c", 2406
L19CD:	lda     #$01
;
; else if (((old_rot == 2) & (cur_rot == 3)) || ((old_rot == 0) & (cur_rot == 3)))
;
	.dbg	line, "main.c", 2408
	jmp     L19DC
L19CE:	lda     L121E
	cmp     #$02
	jsr     booleq
	jsr     pusha0
	lda     _cur_rot
	cmp     #$03
	jsr     booleq
	jsr     tosanda0
	cmp     #$00
	bne     L19CF
	lda     L121E
	jsr     booleq
	jsr     pusha0
	lda     _cur_rot
	cmp     #$03
	jsr     booleq
	jsr     tosanda0
	cmp     #$00
	beq     L19D0
;
; result = rotate_srs(2);
;
	.dbg	line, "main.c", 2410
L19CF:	lda     #$02
;
; else if (((old_rot == 3) & (cur_rot == 2)) || ((old_rot == 3) & (cur_rot == 0)))
;
	.dbg	line, "main.c", 2412
	jmp     L19DC
L19D0:	lda     L121E
	cmp     #$03
	jsr     booleq
	jsr     pusha0
	lda     _cur_rot
	cmp     #$02
	jsr     booleq
	jsr     tosanda0
	cmp     #$00
	bne     L19D1
	lda     L121E
	cmp     #$03
	jsr     booleq
	jsr     pusha0
	lda     _cur_rot
	jsr     booleq
	jsr     tosanda0
	cmp     #$00
	jeq     L1298
;
; result = rotate_srs(3);
;
	.dbg	line, "main.c", 2414
L19D1:	lda     #$03
	jsr     _rotate_srs
;
; else
;
	.dbg	line, "main.c", 2417
	jmp     L19C9
;
; if (((old_rot == 0) & (cur_rot == 1)) ||  ((old_rot == 3) & (cur_rot == 2)))
;
	.dbg	line, "main.c", 2420
L19D2:	lda     L121E
	jsr     booleq
	jsr     pusha0
	lda     _cur_rot
	cmp     #$01
	jsr     booleq
	jsr     tosanda0
	cmp     #$00
	bne     L19D3
	lda     L121E
	cmp     #$03
	jsr     booleq
	jsr     pusha0
	lda     _cur_rot
	cmp     #$02
	jsr     booleq
	jsr     tosanda0
	cmp     #$00
	beq     L19D4
;
; result = rotate_srs(0);
;
	.dbg	line, "main.c", 2422
L19D3:	lda     #$00
	jsr     _rotate_srs
;
; else if (((old_rot == 1) & (cur_rot == 0)) || ((old_rot == 2) & (cur_rot == 3)))
;
	.dbg	line, "main.c", 2424
	jmp     L19C9
L19D4:	lda     L121E
	cmp     #$01
	jsr     booleq
	jsr     pusha0
	lda     _cur_rot
	jsr     booleq
	jsr     tosanda0
	cmp     #$00
	bne     L19D5
	lda     L121E
	cmp     #$02
	jsr     booleq
	jsr     pusha0
	lda     _cur_rot
	cmp     #$03
	jsr     booleq
	jsr     tosanda0
	cmp     #$00
	beq     L19D6
;
; result = rotate_srs(1);
;
	.dbg	line, "main.c", 2426
L19D5:	lda     #$01
	jsr     _rotate_srs
;
; else if (((old_rot == 1) & (cur_rot == 2)) || ((old_rot == 0) & (cur_rot == 3)))
;
	.dbg	line, "main.c", 2428
	jmp     L19C9
L19D6:	lda     L121E
	cmp     #$01
	jsr     booleq
	jsr     pusha0
	lda     _cur_rot
	cmp     #$02
	jsr     booleq
	jsr     tosanda0
	cmp     #$00
	bne     L19D7
	lda     L121E
	jsr     booleq
	jsr     pusha0
	lda     _cur_rot
	cmp     #$03
	jsr     booleq
	jsr     tosanda0
	cmp     #$00
	beq     L19D8
;
; result = rotate_srs(2);
;
	.dbg	line, "main.c", 2430
L19D7:	lda     #$02
	jsr     _rotate_srs
;
; else if (((old_rot == 2) & (cur_rot == 1)) || ((old_rot == 3) & (cur_rot == 0)))
;
	.dbg	line, "main.c", 2432
	jmp     L19C9
L19D8:	lda     L121E
	cmp     #$02
	jsr     booleq
	jsr     pusha0
	lda     _cur_rot
	cmp     #$01
	jsr     booleq
	jsr     tosanda0
	cmp     #$00
	bne     L19D9
	lda     L121E
	cmp     #$03
	jsr     booleq
	jsr     pusha0
	lda     _cur_rot
	jsr     booleq
	jsr     tosanda0
	cmp     #$00
	beq     L1298
;
; result = rotate_srs(3);
;
	.dbg	line, "main.c", 2434
L19D9:	lda     #$03
L19DC:	jsr     _rotate_srs
;
; else
;
	.dbg	line, "main.c", 2438
	jmp     L19C9
;
; result = 1;
;
	.dbg	line, "main.c", 2440
L19DA:	lda     #$01
L19C9:	sta     L1220
;
; if (result == 0)
;
	.dbg	line, "main.c", 2443
L1298:	lda     L1220
	bne     L19DB
;
; cur_rot = old_rot;
;
	.dbg	line, "main.c", 2445
	lda     L121E
	sta     _cur_rot
;
; is_last_rotate = old_is_last_rotate;
;
	.dbg	line, "main.c", 2446
	lda     L121F
	sta     _is_last_rotate
;
; memcpy(cur_cluster.layout, cur_cluster.def[cur_rot], 4);
;
	.dbg	line, "main.c", 2447
	lda     #<(_cur_cluster)
	ldx     #>(_cur_cluster)
	jsr     pushax
	ldx     #$00
	lda     _cur_rot
	jsr     aslax2
	clc
	adc     #<(_cur_cluster+4)
	tay
	txa
	adc     #>(_cur_cluster+4)
	tax
	tya
	jsr     pushax
	ldx     #$00
	lda     #$04
	jsr     _memcpy
;
; SFX_PLAY_WRAPPER(SOUND_BLOCKED);
;
	.dbg	line, "main.c", 2448
	lda     _sfx_on
	beq     L12AF
	lda     #$06
	jsr     pusha
	lda     #$00
;
; else
;
	.dbg	line, "main.c", 2450
	jmp     L19CA
;
; is_last_rotate = 1;
;
	.dbg	line, "main.c", 2452
L19DB:	lda     #$01
	sta     _is_last_rotate
;
; SFX_PLAY_WRAPPER(SOUND_ROTATE);
;
	.dbg	line, "main.c", 2453
	lda     _sfx_on
	beq     L12AF
	lda     #$00
	jsr     pusha
L19CA:	jsr     _sfx_play
;
; }
;
	.dbg	line, "main.c", 2455
L12AF:	jmp     incsp1
	.dbg	line

.endproc

; ---------------------------------------------------------------
; unsigned char __near__ check_tspin (void)
; ---------------------------------------------------------------

.segment	"CODE"

.proc	_check_tspin: near

	.dbg	func, "check_tspin", "00", extern, "_check_tspin"

.segment	"BSS"

L1860:
	.res	1,$00
L1861:
	.res	1,$00
L1862:
	.res	1,$00
L1863:
	.res	1,$00

.segment	"CODE"

;
; result = 0;
;
	.dbg	line, "main.c", 3718
	lda     #$00
	sta     L1863
;
; if (cur_cluster.id == 4 & is_last_rotate == 1) //Is T cluster
;
	.dbg	line, "main.c", 3719
	lda     _cur_cluster+21
	cmp     #$04
	jsr     booleq
	jsr     pusha0
	lda     _is_last_rotate
	cmp     #$01
	jsr     booleq
	jsr     tosanda0
	cmp     #$00
	jeq     L19E1
;
; j = cur_cluster.layout[2];
;
	.dbg	line, "main.c", 3722
	lda     _cur_cluster+2
	sta     L1862
;
; local_ix = morton_compact_one_by_one(j >> 0); 
;
	.dbg	line, "main.c", 3725
	jsr     _morton_compact_one_by_one
	sta     _local_ix
;
; local_iy = morton_compact_one_by_one(j >> 1); 
;
	.dbg	line, "main.c", 3726
	lda     L1862
	lsr     a
	jsr     _morton_compact_one_by_one
	sta     _local_iy
;
; x = cur_block.x + local_ix;
;
	.dbg	line, "main.c", 3728
	lda     _cur_block
	clc
	adc     _local_ix
	sta     L1860
;
; y = cur_block.y + local_iy;
;
	.dbg	line, "main.c", 3729
	lda     _cur_block+1
	clc
	adc     _local_iy
	sta     L1861
;
; result += is_block_full(x + 1, y - 1);
;
	.dbg	line, "main.c", 3731
	lda     L1860
	clc
	adc     #$01
	jsr     pusha
	lda     L1861
	sec
	sbc     #$01
	jsr     _is_block_full
	clc
	adc     L1863
	sta     L1863
;
; result += is_block_full(x - 1, y + 1);
;
	.dbg	line, "main.c", 3732
	lda     L1860
	sec
	sbc     #$01
	jsr     pusha
	lda     L1861
	clc
	adc     #$01
	jsr     _is_block_full
	clc
	adc     L1863
	sta     L1863
;
; result += is_block_full(x + 1, y + 1);
;
	.dbg	line, "main.c", 3733
	lda     L1860
	clc
	adc     #$01
	jsr     pusha
	lda     L1861
	clc
	adc     #$01
	jsr     _is_block_full
	clc
	adc     L1863
	sta     L1863
;
; result += is_block_full(x - 1, y - 1);
;
	.dbg	line, "main.c", 3734
	lda     L1860
	sec
	sbc     #$01
	jsr     pusha
	lda     L1861
	sec
	sbc     #$01
	jsr     _is_block_full
	clc
	adc     L1863
	sta     L1863
;
; if (result >= 3)
;
	.dbg	line, "main.c", 3736
	cmp     #$03
	lda     #$00
	bcc     L19DF
;
; result = 1;
;
	.dbg	line, "main.c", 3738
	lda     #$01
;
; result = 0;
;
	.dbg	line, "main.c", 3742
L19DF:	sta     L1863
;
; return result;
;
	.dbg	line, "main.c", 3746
	ldx     #$00
L19E1:	lda     L1863
;
; }
;
	.dbg	line, "main.c", 3747
	rts
	.dbg	line

.endproc

; ---------------------------------------------------------------
; unsigned char __near__ rotate_srs (unsigned char)
; ---------------------------------------------------------------

.segment	"CODE"

.proc	_rotate_srs: near

	.dbg	func, "rotate_srs", "00", extern, "_rotate_srs"
	.dbg	sym, "case_id", "00", auto, 0

.segment	"BSS"

L12B6:
	.res	1,$00
L12B7:
	.res	1,$00

.segment	"CODE"

;
; {
;
	.dbg	line, "main.c", 2458
	jsr     pusha
;
; for (test = 0; test < 5; ++test)
;
	.dbg	line, "main.c", 2461
	lda     #$00
	sta     L12B6
	tax
L19E5:	lda     L12B6
	cmp     #$05
	bcs     L19E8
;
; morton = (cur_cluster.id == 2 ? srs_line_rotate_lookup[case_id][test] : srs_non_line_rotate_lookup[case_id][test]);
;
	.dbg	line, "main.c", 2463
	lda     _cur_cluster+21
	cmp     #$02
	bne     L12C3
	lda     (sp,x)
	jsr     mulax5
	clc
	adc     #<(_srs_line_rotate_lookup)
	sta     ptr1
	txa
	adc     #>(_srs_line_rotate_lookup)
	jmp     L19EC
L12C3:	lda     (sp,x)
	jsr     mulax5
	clc
	adc     #<(_srs_non_line_rotate_lookup)
	sta     ptr1
	txa
	adc     #>(_srs_non_line_rotate_lookup)
L19EC:	sta     ptr1+1
	ldy     L12B6
	lda     (ptr1),y
	cmp     #$80
	sta     L12B7
;
; cur_block.x += (morton_compact_one_by_one(morton >> 0) - 3);
;
	.dbg	line, "main.c", 2464
	jsr     _morton_compact_one_by_one
	sec
	sbc     #$03
	clc
	adc     _cur_block
	sta     _cur_block
;
; cur_block.y += (morton_compact_one_by_one(morton >> 1) - 3);
;
	.dbg	line, "main.c", 2465
	lda     L12B7
	cmp     #$80
	ror     a
	jsr     _morton_compact_one_by_one
	sec
	sbc     #$03
	clc
	adc     _cur_block+1
	sta     _cur_block+1
;
; if (!is_cluster_colliding())
;
	.dbg	line, "main.c", 2466
	jsr     _is_cluster_colliding
	tax
	bne     L12BA
;
; return 1;
;
	.dbg	line, "main.c", 2468
	lda     #$01
	jmp     incsp1
;
; for (test = 0; test < 5; ++test)
;
	.dbg	line, "main.c", 2461
L12BA:	ldx     #$00
	inc     L12B6
	jmp     L19E5
;
; return 0;
;
	.dbg	line, "main.c", 2471
L19E8:	txa
;
; }
;
	.dbg	line, "main.c", 2472
	jmp     incsp1
	.dbg	line

.endproc

; ---------------------------------------------------------------
; void __near__ go_to_state (unsigned char)
; ---------------------------------------------------------------

.segment	"CODE"

.proc	_go_to_state: near

	.dbg	func, "go_to_state", "00", extern, "_go_to_state"
	.dbg	sym, "new_state", "00", auto, 0

.segment	"BSS"

L12EB:
	.res	1,$00
L12EC:
	.res	1,$00
L12ED:
	.res	1,$00

.segment	"CODE"

;
; {
;
	.dbg	line, "main.c", 2483
	jsr     pusha
;
; fade_delay = 5;
;
	.dbg	line, "main.c", 2493
	lda     #$05
	sta     L12EC
;
; prev_state = state;
;
	.dbg	line, "main.c", 2494
	lda     _state
	sta     L12ED
;
; switch (state)
;
	.dbg	line, "main.c", 2496
	lda     _state
;
; }
;
	.dbg	line, "main.c", 2592
	cmp     #$01
	beq     L12F6
	cmp     #$03
	beq     L12FF
	cmp     #$04
	beq     L131D
	cmp     #$05
	beq     L1319
	cmp     #$07
	jne     L12F4
;
; MUSIC_PLAY_ATTRACT_WRAPPER(MUSIC_TITLE);
;
	.dbg	line, "main.c", 2501
L12F6:	lda     _music_on
	jeq     L12F4
	lda     #$00
	jsr     _music_play
;
; break;
;
	.dbg	line, "main.c", 2502
	jmp     L12F4
;
; pal_bg(palette_bg);
;
	.dbg	line, "main.c", 2511
L12FF:	lda     #<(_palette_bg)
	ldx     #>(_palette_bg)
	jsr     _pal_bg
;
; saved_starting_level = cur_level;
;
	.dbg	line, "main.c", 2512
	lda     _cur_level
	sta     _saved_starting_level
;
; fall_rate = fall_rates_per_level[MIN(cur_level, sizeof(fall_rates_per_level))];
;
	.dbg	line, "main.c", 2513
	lda     _cur_level
	cmp     #$1E
	bcs     L19ED
	jmp     L130E
L19ED:	lda     #$1E
L130E:	sta     ptr1
	lda     #$00
	clc
	adc     #>(_fall_rates_per_level)
	sta     ptr1+1
	ldy     #<(_fall_rates_per_level)
	lda     (ptr1),y
	sta     _fall_rate
;
; row_to_clear = -1;
;
	.dbg	line, "main.c", 2514
	lda     #$FF
	sta     _row_to_clear
;
; start_delay_remaining = START_DELAY;
;
	.dbg	line, "main.c", 2515
	lda     #$78
	sta     _start_delay_remaining
;
; display_level();
;
	.dbg	line, "main.c", 2516
	jsr     _display_level
;
; display_score();
;
	.dbg	line, "main.c", 2517
	jsr     _display_score
;
; break;
;
	.dbg	line, "main.c", 2518
	jmp     L12F4
;
; pal_bright(4);
;
	.dbg	line, "main.c", 2524
L1319:	lda     #$04
	jsr     _pal_bright
;
; break;
;
	.dbg	line, "main.c", 2525
	jmp     L12F4
;
; if (cur_score > high_scores[attack_style])
;
	.dbg	line, "main.c", 2575
L131D:	lda     _cur_score+3
	sta     sreg+1
	lda     _cur_score+2
	sta     sreg
	ldx     _cur_score+1
	lda     _cur_score
	jsr     pusheax
	ldx     #$00
	lda     _attack_style
	jsr     aslax2
	clc
	adc     #<(_high_scores)
	tay
	txa
	adc     #>(_high_scores)
	tax
	tya
	jsr     ldeaxi
	jsr     tosugteax
	beq     L12F4
;
; high_scores[attack_style] = cur_score;
;
	.dbg	line, "main.c", 2577
	ldx     #$00
	lda     _attack_style
	jsr     aslax2
	clc
	adc     #<(_high_scores)
	tay
	txa
	adc     #>(_high_scores)
	tax
	tya
	jsr     pushax
	lda     _cur_score+3
	sta     sreg+1
	lda     _cur_score+2
	sta     sreg
	ldx     _cur_score+1
	lda     _cur_score
	ldy     #$00
	jsr     steaxspidx
;
; state = new_state;
;
	.dbg	line, "main.c", 2594
L12F4:	ldy     #$00
	lda     (sp),y
	sta     _state
;
; ticks_in_state_large = 0;
;
	.dbg	line, "main.c", 2596
	tya
	sta     _ticks_in_state_large
	sta     _ticks_in_state_large+1
;
; switch (state)
;
	.dbg	line, "main.c", 2598
	lda     _state
;
; }
;
	.dbg	line, "main.c", 3002
	beq     L132D
	cmp     #$01
	beq     L133C
	cmp     #$02
	beq     L134B
	cmp     #$03
	jeq     L138A
	cmp     #$04
	jeq     L19F1
	cmp     #$05
	jeq     L13F6
	cmp     #$06
	jeq     L13FF
	cmp     #$07
	jeq     L13A4
	jmp     incsp1
;
; pal_bg(palette_bg_options);
;
	.dbg	line, "main.c", 2602
L132D:	lda     #<(_palette_bg_options)
	ldx     #>(_palette_bg_options)
	jsr     _pal_bg
;
; ppu_off();
;
	.dbg	line, "main.c", 2603
	jsr     _ppu_off
;
; vram_adr(NTADR_A(0, 0));
;
	.dbg	line, "main.c", 2604
	ldx     #$20
	lda     #$00
	jsr     _vram_adr
;
; vram_unrle(boot_screen);
;
	.dbg	line, "main.c", 2605
	lda     #<(_boot_screen)
	ldx     #>(_boot_screen)
	jsr     _vram_unrle
;
; ppu_on_all();
;
	.dbg	line, "main.c", 2606
	jsr     _ppu_on_all
;
; break;
;
	.dbg	line, "main.c", 2608
	jmp     incsp1
;
; pal_bg(palette_bg_options);
;
	.dbg	line, "main.c", 2612
L133C:	lda     #<(_palette_bg_options)
	ldx     #>(_palette_bg_options)
	jsr     _pal_bg
;
; ppu_off();
;
	.dbg	line, "main.c", 2613
	jsr     _ppu_off
;
; vram_adr(NTADR_A(0, 0));
;
	.dbg	line, "main.c", 2614
	ldx     #$20
	lda     #$00
	jsr     _vram_adr
;
; vram_unrle(ty_screen);
;
	.dbg	line, "main.c", 2615
	lda     #<(_ty_screen)
	ldx     #>(_ty_screen)
	jsr     _vram_unrle
;
; ppu_on_all();
;
	.dbg	line, "main.c", 2616
	jsr     _ppu_on_all
;
; break;
;
	.dbg	line, "main.c", 2618
	jmp     incsp1
;
; pal_bg(palette_bg);
;
	.dbg	line, "main.c", 2622
L134B:	lda     #<(_palette_bg)
	ldx     #>(_palette_bg)
	jsr     _pal_bg
;
; pal_spr(palette_sp);
;
	.dbg	line, "main.c", 2623
	lda     #<(_palette_sp)
	ldx     #>(_palette_sp)
	jsr     _pal_spr
;
; scroll_y = 0x1df;
;
	.dbg	line, "main.c", 2624
	ldx     #$01
	lda     #$DF
	sta     _scroll_y
	stx     _scroll_y+1
;
; time_of_day = 0;
;
	.dbg	line, "main.c", 2625
	lda     #$00
	sta     _time_of_day
;
; cur_konami_index = 0;
;
	.dbg	line, "main.c", 2626
	sta     _cur_konami_index
;
; if (prev_state == STATE_OPTIONS || prev_state == STATE_BOOT || prev_state == STATE_TY || prev_state == STATE_SOUND_TEST || prev_state == STATE_HIGH_SCORE_TABLE)
;
	.dbg	line, "main.c", 2631
	lda     L12ED
	cmp     #$03
	beq     L19EF
	lda     L12ED
	beq     L19EF
	cmp     #$01
	beq     L19EF
	cmp     #$07
	beq     L19EF
	cmp     #$08
	bne     L19F0
;
; oam_clear();
;
	.dbg	line, "main.c", 2633
L19EF:	jsr     _oam_clear
;
; draw_menu_sprites();
;
	.dbg	line, "main.c", 2634
	jsr     _draw_menu_sprites
;
; ppu_off();
;
	.dbg	line, "main.c", 2636
	jsr     _ppu_off
;
; vram_adr(NTADR_A(0, 0));
;
	.dbg	line, "main.c", 2637
	ldx     #$20
	lda     #$00
	jsr     _vram_adr
;
; vram_unrle(title_screen);
;
	.dbg	line, "main.c", 2638
	lda     #<(_title_screen)
	ldx     #>(_title_screen)
	jsr     _vram_unrle
;
; ppu_on_all();
;
	.dbg	line, "main.c", 2639
	jsr     _ppu_on_all
;
; multi_vram_buffer_horz(clear_push_start, sizeof(clear_push_start) - 1, get_ppu_addr(0, 12 << 3, 12 << 3));
;
	.dbg	line, "main.c", 2643
	jsr     decsp3
	lda     #<(_clear_push_start)
	ldy     #$01
	sta     (sp),y
	iny
	lda     #>(_clear_push_start)
	sta     (sp),y
	lda     #$0A
	ldy     #$00
	sta     (sp),y
	jsr     decsp2
	tya
	iny
	sta     (sp),y
	lda     #$60
	dey
	sta     (sp),y
	jsr     _get_ppu_addr
	jsr     _multi_vram_buffer_horz
;
; else
;
	.dbg	line, "main.c", 2646
	jmp     incsp1
;
; if (prev_state == STATE_OVER)
;
	.dbg	line, "main.c", 2648
L19F0:	lda     L12ED
	cmp     #$06
	bne     L136F
;
; fade_to_black();
;
	.dbg	line, "main.c", 2650
	jsr     _fade_to_black
;
; reset_gameplay_area();
;
	.dbg	line, "main.c", 2653
L136F:	jsr     _reset_gameplay_area
;
; draw_menu_sprites();
;
	.dbg	line, "main.c", 2655
	jsr     _draw_menu_sprites
;
; scroll_y = 0x1df;
;
	.dbg	line, "main.c", 2657
	ldx     #$01
	lda     #$DF
	sta     _scroll_y
	stx     _scroll_y+1
;
; scroll(0, 0x1df); // shift the bg down 1 pixel
;
	.dbg	line, "main.c", 2658
	jsr     push0
	ldx     #$01
	lda     #$DF
	jsr     _scroll
;
; MUSIC_PLAY_ATTRACT_WRAPPER(MUSIC_TITLE);
;
	.dbg	line, "main.c", 2659
	lda     _music_on
	beq     L1379
	lda     #$00
	jsr     _music_play
;
; multi_vram_buffer_horz(clear_push_start, sizeof(clear_push_start) - 1, get_ppu_addr(0, 12 << 3, 12 << 3));
;
	.dbg	line, "main.c", 2664
L1379:	jsr     decsp3
	lda     #<(_clear_push_start)
	ldy     #$01
	sta     (sp),y
	iny
	lda     #>(_clear_push_start)
	sta     (sp),y
	lda     #$0A
	ldy     #$00
	sta     (sp),y
	jsr     decsp2
	tya
	iny
	sta     (sp),y
	lda     #$60
	dey
	sta     (sp),y
	jsr     _get_ppu_addr
	jsr     _multi_vram_buffer_horz
;
; if (prev_state == STATE_OVER)
;
	.dbg	line, "main.c", 2667
	lda     L12ED
	cmp     #$06
	beq     L19F4
;
; }
;
	.dbg	line, "main.c", 3003
	jmp     incsp1
;
; fade_from_black();
;
	.dbg	line, "main.c", 2669
L19F4:	jsr     _fade_from_black
;
; break;
;
	.dbg	line, "main.c", 2673
	jmp     incsp1
;
; oam_clear();
;
	.dbg	line, "main.c", 2678
L138A:	jsr     _oam_clear
;
; clear_vram_buffer();
;
	.dbg	line, "main.c", 2683
	jsr     _clear_vram_buffer
;
; ppu_off();
;
	.dbg	line, "main.c", 2685
	jsr     _ppu_off
;
; pal_bg(palette_bg_options);
;
	.dbg	line, "main.c", 2706
	lda     #<(_palette_bg_options)
	ldx     #>(_palette_bg_options)
	jsr     _pal_bg
;
; vram_adr(NTADR_A(0, 0));
;
	.dbg	line, "main.c", 2710
	ldx     #$20
	lda     #$00
	jsr     _vram_adr
;
; vram_unrle(options_screen);
;
	.dbg	line, "main.c", 2716
	lda     #<(_options_screen)
	ldx     #>(_options_screen)
	jsr     _vram_unrle
;
; cur_level %= 10;
;
	.dbg	line, "main.c", 2725
	lda     _cur_level
	jsr     pusha0
	lda     #$0A
	jsr     tosumoda0
	sta     _cur_level
;
; cur_option = 0;
;
	.dbg	line, "main.c", 2726
	lda     #$00
	sta     _cur_option
;
; ppu_on_all();
;
	.dbg	line, "main.c", 2728
	jsr     _ppu_on_all
;
; display_options();
;
	.dbg	line, "main.c", 2730
	jsr     _display_options
;
; delay(1);
;
	.dbg	line, "main.c", 2732
	lda     #$01
	jsr     _delay
;
; clear_vram_buffer();
;
	.dbg	line, "main.c", 2733
	jsr     _clear_vram_buffer
;
; display_highscore();
;
	.dbg	line, "main.c", 2734
	jsr     _display_highscore
;
; break;
;
	.dbg	line, "main.c", 2737
	jmp     incsp1
;
; oam_clear();
;
	.dbg	line, "main.c", 2743
L13A4:	jsr     _oam_clear
;
; ppu_off(); // screen off
;
	.dbg	line, "main.c", 2744
	jsr     _ppu_off
;
; pal_bg(palette_bg_options);
;
	.dbg	line, "main.c", 2746
	lda     #<(_palette_bg_options)
	ldx     #>(_palette_bg_options)
	jsr     _pal_bg
;
; vram_adr(NTADR_A(0, 0));
;
	.dbg	line, "main.c", 2747
	ldx     #$20
	lda     #$00
	jsr     _vram_adr
;
; vram_unrle(sound_screen);
;
	.dbg	line, "main.c", 2748
	lda     #<(_sound_screen)
	ldx     #>(_sound_screen)
	jsr     _vram_unrle
;
; ppu_on_all(); // turn on screen
;
	.dbg	line, "main.c", 2750
	jsr     _ppu_on_all
;
; test_song = test_sound = 0;
;
	.dbg	line, "main.c", 2752
	lda     #$00
	sta     _test_sound
	sta     _test_song
;
; test_song_active = 0xff;
;
	.dbg	line, "main.c", 2753
	lda     #$FF
	sta     _test_song_active
;
; display_song();
;
	.dbg	line, "main.c", 2755
	jsr     _display_song
;
; display_sound();
;
	.dbg	line, "main.c", 2756
	jsr     _display_sound
;
; break;
;
	.dbg	line, "main.c", 2758
	jmp     incsp1
;
; if (prev_state == STATE_OVER)
;
	.dbg	line, "main.c", 2765
L19F1:	lda     L12ED
	cmp     #$06
	bne     L19F2
;
; reset_gameplay_area();
;
	.dbg	line, "main.c", 2767
	jsr     _reset_gameplay_area
;
; if (prev_state != STATE_PAUSE)
;
	.dbg	line, "main.c", 2770
L19F2:	lda     L12ED
	cmp     #$05
	jeq     L19F3
;
; oam_clear();
;
	.dbg	line, "main.c", 2772
	jsr     _oam_clear
;
; if (prev_state == STATE_OPTIONS)
;
	.dbg	line, "main.c", 2786
	lda     L12ED
	cmp     #$03
	bne     L13C8
;
; scroll_y = 0;
;
	.dbg	line, "main.c", 2789
	lda     #$00
	sta     _scroll_y
	sta     _scroll_y+1
;
; while (scroll_y < 240)
;
	.dbg	line, "main.c", 2791
	jmp     L13C8
;
; scroll(0, scroll_y);
;
	.dbg	line, "main.c", 2793
L13C6:	jsr     push0
	lda     _scroll_y
	ldx     _scroll_y+1
	jsr     _scroll
;
; delay(1);
;
	.dbg	line, "main.c", 2794
	lda     #$01
	jsr     _delay
;
; scroll_y += 4;
;
	.dbg	line, "main.c", 2795
	lda     #$04
	clc
	adc     _scroll_y
	sta     _scroll_y
	bcc     L13C8
	inc     _scroll_y+1
;
; while (scroll_y < 240)
;
	.dbg	line, "main.c", 2791
L13C8:	lda     _scroll_y+1
	cmp     #$00
	bne     L13CA
	lda     _scroll_y
	cmp     #$F0
L13CA:	bcc     L13C6
;
; scroll_y = 239;
;
	.dbg	line, "main.c", 2798
	ldx     #$00
	lda     #$EF
	sta     _scroll_y
	stx     _scroll_y+1
;
; scroll(0, scroll_y);
;
	.dbg	line, "main.c", 2799
	jsr     push0
	lda     _scroll_y
	ldx     _scroll_y+1
	jsr     _scroll
;
; spawn_new_cluster();
;
	.dbg	line, "main.c", 2802
	jsr     _spawn_new_cluster
;
; spawn_new_cluster();
;
	.dbg	line, "main.c", 2804
	jsr     _spawn_new_cluster
;
; memfill(attack_row_status, 0, BOARD_WIDTH);
;
	.dbg	line, "main.c", 2806
	jsr     decsp3
	lda     #<(_attack_row_status)
	ldy     #$01
	sta     (sp),y
	iny
	lda     #>(_attack_row_status)
	sta     (sp),y
	lda     #$00
	tay
	sta     (sp),y
	tax
	lda     #$0A
	jsr     _memfill
;
; srand(tick_count_large);
;
	.dbg	line, "main.c", 2809
	lda     _tick_count_large
	ldx     _tick_count_large+1
	jsr     _srand
;
; i = rand() % BOARD_WIDTH;
;
	.dbg	line, "main.c", 2812
	jsr     _rand
	jsr     pushax
	ldx     #$00
	lda     #$0A
	jsr     tosmoda0
	sta     L12EB
;
; attack_row_status[i] = 1;
;
	.dbg	line, "main.c", 2813
	ldy     L12EB
	lda     #$01
	sta     _attack_row_status,y
;
; require_new_down_button = 1;
;
	.dbg	line, "main.c", 2815
	sta     _require_new_down_button
;
; if (attack_style == ATTACK_ON_TIME)
;
	.dbg	line, "main.c", 2816
	lda     _attack_style
	cmp     #$01
	bne     L19F3
;
; attack_queue_ticks_remaining = attack_delay;
;
	.dbg	line, "main.c", 2818
	lda     _attack_delay+1
	sta     _attack_queue_ticks_remaining+1
	lda     _attack_delay
	sta     _attack_queue_ticks_remaining
;
; cur_gameplay_music = MUSIC_GAMEPLAY;
;
	.dbg	line, "main.c", 2829
L19F3:	lda     #$01
	sta     _cur_gameplay_music
;
; MUSIC_PLAY_WRAPPER(MUSIC_GAMEPLAY);
;
	.dbg	line, "main.c", 2830
	lda     _music_on
	bne     L19F5
;
; }
;
	.dbg	line, "main.c", 3003
	jmp     incsp1
;
; MUSIC_PLAY_WRAPPER(MUSIC_GAMEPLAY);
;
	.dbg	line, "main.c", 2830
L19F5:	lda     #$01
	jsr     _music_play
;
; break;
;
	.dbg	line, "main.c", 2833
	jmp     incsp1
;
; pal_bright(2);
;
	.dbg	line, "main.c", 2838
L13F6:	lda     #$02
	jsr     _pal_bright
;
; MUSIC_PLAY_WRAPPER(MUSIC_PAUSE);
;
	.dbg	line, "main.c", 2839
	lda     _music_on
	bne     L19F6
;
; }
;
	.dbg	line, "main.c", 3003
	jmp     incsp1
;
; MUSIC_PLAY_WRAPPER(MUSIC_PAUSE);
;
	.dbg	line, "main.c", 2839
L19F6:	lda     #$03
	jsr     _music_play
;
; break;
;
	.dbg	line, "main.c", 2840
	jmp     incsp1
;
; delay(1);
;
	.dbg	line, "main.c", 2846
L13FF:	lda     #$01
	jsr     _delay
;
; clear_vram_buffer();
;
	.dbg	line, "main.c", 2847
	jsr     _clear_vram_buffer
;
; draw_gameplay_sprites();
;
	.dbg	line, "main.c", 2850
	jsr     _draw_gameplay_sprites
;
; music_stop();
;
	.dbg	line, "main.c", 2852
	jsr     _music_stop
;
; SFX_MUSIC_PLAY_WRAPPER(SOUND_GAMEOVER);
;
	.dbg	line, "main.c", 2853
	lda     _music_on
	beq     L1405
	lda     #$04
	jsr     pusha
	lda     #$00
	jsr     _sfx_play
;
; if (music_on)
;
	.dbg	line, "main.c", 2857
L1405:	lda     _music_on
	beq     L140B
;
; delay(120);
;
	.dbg	line, "main.c", 2859
	lda     #$78
	jsr     _delay
;
; SFX_MUSIC_PLAY_WRAPPER(SOUND_GAMEOVER_SONG);
;
	.dbg	line, "main.c", 2864
L140B:	lda     _music_on
	beq     L140F
	lda     #$0C
	jsr     pusha
	lda     #$00
	jsr     _sfx_play
;
; pal_bright(5);
;
	.dbg	line, "main.c", 2870
L140F:	lda     #$05
	jsr     _pal_bright
;
; delay(fade_delay);
;
	.dbg	line, "main.c", 2871
	lda     L12EC
	jsr     _delay
;
; pal_bright(6);
;
	.dbg	line, "main.c", 2872
	lda     #$06
	jsr     _pal_bright
;
; delay(fade_delay);
;
	.dbg	line, "main.c", 2873
	lda     L12EC
	jsr     _delay
;
; pal_bright(7);
;
	.dbg	line, "main.c", 2874
	lda     #$07
	jsr     _pal_bright
;
; delay(fade_delay);
;
	.dbg	line, "main.c", 2875
	lda     L12EC
	jsr     _delay
;
; pal_bright(8);
;
	.dbg	line, "main.c", 2876
	lda     #$08
	jsr     _pal_bright
;
; delay(fade_delay);
;
	.dbg	line, "main.c", 2877
	lda     L12EC
	jsr     _delay
;
; address = get_ppu_addr(cur_nt, 96, 14 << 3);
;
	.dbg	line, "main.c", 2879
	jsr     decsp2
	lda     _cur_nt
	ldy     #$01
	sta     (sp),y
	lda     #$60
	dey
	sta     (sp),y
	lda     #$70
	jsr     _get_ppu_addr
	sta     _address
	stx     _address+1
;
; multi_vram_buffer_horz("GAME OVER!", 10, address);
;
	.dbg	line, "main.c", 2880
	jsr     decsp3
	lda     #<(L142B)
	ldy     #$01
	sta     (sp),y
	iny
	lda     #>(L142B)
	sta     (sp),y
	lda     #$0A
	ldy     #$00
	sta     (sp),y
	lda     _address
	ldx     _address+1
	jsr     _multi_vram_buffer_horz
;
; address = get_ppu_addr(cur_nt, 96, 15 << 3);
;
	.dbg	line, "main.c", 2882
	jsr     decsp2
	lda     _cur_nt
	ldy     #$01
	sta     (sp),y
	lda     #$60
	dey
	sta     (sp),y
	lda     #$78
	jsr     _get_ppu_addr
	sta     _address
	stx     _address+1
;
; multi_vram_buffer_horz("A-RESTART ", 10, address);
;
	.dbg	line, "main.c", 2883
	jsr     decsp3
	lda     #<(L1435)
	ldy     #$01
	sta     (sp),y
	iny
	lda     #>(L1435)
	sta     (sp),y
	lda     #$0A
	ldy     #$00
	sta     (sp),y
	lda     _address
	ldx     _address+1
	jsr     _multi_vram_buffer_horz
;
; address = get_ppu_addr(cur_nt, 96, 16 << 3);
;
	.dbg	line, "main.c", 2884
	jsr     decsp2
	lda     _cur_nt
	ldy     #$01
	sta     (sp),y
	lda     #$60
	dey
	sta     (sp),y
	lda     #$80
	jsr     _get_ppu_addr
	sta     _address
	stx     _address+1
;
; multi_vram_buffer_horz("B-QUIT    ", 10, address);
;
	.dbg	line, "main.c", 2885
	jsr     decsp3
	lda     #<(L143F)
	ldy     #$01
	sta     (sp),y
	iny
	lda     #>(L143F)
	sta     (sp),y
	lda     #$0A
	ldy     #$00
	sta     (sp),y
	lda     _address
	ldx     _address+1
	jsr     _multi_vram_buffer_horz
;
; pal_bright(7);
;
	.dbg	line, "main.c", 2887
	lda     #$07
	jsr     _pal_bright
;
; delay(fade_delay);
;
	.dbg	line, "main.c", 2888
	lda     L12EC
	jsr     _delay
;
; pal_bright(6);
;
	.dbg	line, "main.c", 2889
	lda     #$06
	jsr     _pal_bright
;
; delay(fade_delay);
;
	.dbg	line, "main.c", 2890
	lda     L12EC
	jsr     _delay
;
; pal_bright(5);
;
	.dbg	line, "main.c", 2891
	lda     #$05
	jsr     _pal_bright
;
; delay(fade_delay);
;
	.dbg	line, "main.c", 2892
	lda     L12EC
	jsr     _delay
;
; pal_bright(4);
;
	.dbg	line, "main.c", 2893
	lda     #$04
	jsr     _pal_bright
;
; delay(fade_delay);
;
	.dbg	line, "main.c", 2894
	lda     L12EC
	jsr     _delay
;
; break;
;
	.dbg	line, "main.c", 2895
	jmp     incsp1
	.dbg	line

.endproc

; ---------------------------------------------------------------
; void __near__ inc_lines_cleared (void)
; ---------------------------------------------------------------

.segment	"CODE"

.proc	_inc_lines_cleared: near

	.dbg	func, "inc_lines_cleared", "00", extern, "_inc_lines_cleared"

.segment	"BSS"

L1455:
	.res	1,$00

.segment	"CODE"

;
; ++lines_cleared_one;
;
	.dbg	line, "main.c", 3008
	inc     _lines_cleared_one
;
; if (lines_cleared_one == 10)
;
	.dbg	line, "main.c", 3010
	lda     _lines_cleared_one
	cmp     #$0A
	beq     L19FF
;
; display_lines_cleared();
;
	.dbg	line, "main.c", 3066
	jmp     _display_lines_cleared
;
; lines_total = (lines_cleared_hundred * 10) + lines_cleared_ten;
;
	.dbg	line, "main.c", 3013
L19FF:	ldx     #$00
	lda     _lines_cleared_hundred
	jsr     mulax10
	clc
	adc     _lines_cleared_ten
	sta     L1455
;
; if (cur_level <= lines_total)
;
	.dbg	line, "main.c", 3015
	lda     _cur_level
	sec
	sbc     L1455
	sta     tmp1
	lda     tmp1
	beq     L19F9
	bcs     L19FD
;
; ++cur_level;
;
	.dbg	line, "main.c", 3017
L19F9:	inc     _cur_level
;
; if (cur_level <= 29)
;
	.dbg	line, "main.c", 3020
	lda     _cur_level
	cmp     #$1E
	bcs     L19FB
;
; fall_rate = fall_rates_per_level[MIN(cur_level, sizeof(fall_rates_per_level))];
;
	.dbg	line, "main.c", 3022
	cmp     #$1E
	bcs     L19FA
	jmp     L146B
L19FA:	lda     #$1E
L146B:	sta     ptr1
	lda     #$00
	clc
	adc     #>(_fall_rates_per_level)
	sta     ptr1+1
	ldy     #<(_fall_rates_per_level)
	lda     (ptr1),y
	sta     _fall_rate
;
; else if (cur_level < 40) // raise the floor 10 levels.
;
	.dbg	line, "main.c", 3024
	jmp     L19FD
L19FB:	lda     _cur_level
	cmp     #$28
	bcs     L19FD
;
; if (cur_level == 30)
;
	.dbg	line, "main.c", 3026
	cmp     #$1E
	bne     L19FC
;
; one_vram_buffer(SKULL_SPRITE, get_ppu_addr(cur_nt, 4 << 3, 9 << 3)); // skull
;
	.dbg	line, "main.c", 3028
	lda     #$3B
	jsr     pusha
	jsr     decsp2
	lda     _cur_nt
	ldy     #$01
	sta     (sp),y
	lda     #$20
	dey
	sta     (sp),y
	lda     #$48
	jsr     _get_ppu_addr
	jsr     _one_vram_buffer
;
; kill_row_queued = 1;
;
	.dbg	line, "main.c", 3030
L19FC:	lda     #$01
	sta     _kill_row_queued
;
; ++time_of_day;
;
	.dbg	line, "main.c", 3034
L19FD:	inc     _time_of_day
;
; if (time_of_day >= NUM_TIMES_OF_DAY)
;
	.dbg	line, "main.c", 3035
	lda     _time_of_day
	cmp     #$08
	ldx     #$00
	bcc     L19FE
;
; time_of_day = 0;
;
	.dbg	line, "main.c", 3037
	stx     _time_of_day
;
; pal_bg(palette_bg_list[time_of_day]);
;
	.dbg	line, "main.c", 3040
L19FE:	lda     _time_of_day
	jsr     aslax4
	clc
	adc     #<(_palette_bg_list)
	tay
	txa
	adc     #>(_palette_bg_list)
	tax
	tya
	jsr     _pal_bg
;
; memcpy(temp_pal, palette_sp, sizeof(palette_sp));
;
	.dbg	line, "main.c", 3043
	ldy     #$0F
L1489:	lda     _palette_sp,y
	sta     _temp_pal,y
	dey
	bpl     L1489
;
; temp_pal[1] = palette_bg_list[time_of_day][1];
;
	.dbg	line, "main.c", 3045
	ldx     #$00
	lda     _time_of_day
	jsr     aslax4
	clc
	adc     #<(_palette_bg_list)
	sta     ptr1
	txa
	adc     #>(_palette_bg_list)
	sta     ptr1+1
	ldy     #$01
	lda     (ptr1),y
	sta     _temp_pal+1
;
; temp_pal[2] = palette_bg_list[time_of_day][2];
;
	.dbg	line, "main.c", 3046
	ldx     #$00
	lda     _time_of_day
	jsr     aslax4
	clc
	adc     #<(_palette_bg_list)
	sta     ptr1
	txa
	adc     #>(_palette_bg_list)
	sta     ptr1+1
	iny
	lda     (ptr1),y
	sta     _temp_pal+2
;
; temp_pal[3] = palette_bg_list[time_of_day][3];
;
	.dbg	line, "main.c", 3047
	ldx     #$00
	lda     _time_of_day
	jsr     aslax4
	clc
	adc     #<(_palette_bg_list)
	sta     ptr1
	txa
	adc     #>(_palette_bg_list)
	sta     ptr1+1
	iny
	lda     (ptr1),y
	sta     _temp_pal+3
;
; temp_pal[6] = palette_bg_list[time_of_day][14];
;
	.dbg	line, "main.c", 3049
	ldx     #$00
	lda     _time_of_day
	jsr     aslax4
	clc
	adc     #<(_palette_bg_list)
	sta     ptr1
	txa
	adc     #>(_palette_bg_list)
	sta     ptr1+1
	ldy     #$0E
	lda     (ptr1),y
	sta     _temp_pal+6
;
; temp_pal[7] = palette_bg_list[time_of_day][15];
;
	.dbg	line, "main.c", 3050
	ldx     #$00
	lda     _time_of_day
	jsr     aslax4
	clc
	adc     #<(_palette_bg_list)
	sta     ptr1
	txa
	adc     #>(_palette_bg_list)
	sta     ptr1+1
	iny
	lda     (ptr1),y
	sta     _temp_pal+7
;
; temp_pal[10] = palette_bg_list[time_of_day][2];
;
	.dbg	line, "main.c", 3052
	ldx     #$00
	lda     _time_of_day
	jsr     aslax4
	clc
	adc     #<(_palette_bg_list)
	sta     ptr1
	txa
	adc     #>(_palette_bg_list)
	sta     ptr1+1
	ldy     #$02
	lda     (ptr1),y
	sta     _temp_pal+10
;
; pal_spr(temp_pal);
;
	.dbg	line, "main.c", 3054
	lda     #<(_temp_pal)
	ldx     #>(_temp_pal)
	jsr     _pal_spr
;
; display_level();
;
	.dbg	line, "main.c", 3056
	jsr     _display_level
;
; lines_cleared_one = 0;
;
	.dbg	line, "main.c", 3058
	lda     #$00
	sta     _lines_cleared_one
;
; ++lines_cleared_ten;
;
	.dbg	line, "main.c", 3059
	inc     _lines_cleared_ten
;
; if (lines_cleared_ten == 10)
;
	.dbg	line, "main.c", 3060
	lda     _lines_cleared_ten
	cmp     #$0A
	bne     L14AE
;
; lines_cleared_ten = 0;
;
	.dbg	line, "main.c", 3062
	lda     #$00
	sta     _lines_cleared_ten
;
; ++lines_cleared_hundred;
;
	.dbg	line, "main.c", 3063
	inc     _lines_cleared_hundred
;
; display_lines_cleared();
;
	.dbg	line, "main.c", 3066
L14AE:	jmp     _display_lines_cleared
	.dbg	line

.endproc

; ---------------------------------------------------------------
; void __near__ display_lines_cleared (void)
; ---------------------------------------------------------------

.segment	"CODE"

.proc	_display_lines_cleared: near

	.dbg	func, "display_lines_cleared", "00", extern, "_display_lines_cleared"

.segment	"CODE"

;
; one_vram_buffer('0' + lines_cleared_hundred, get_ppu_addr(cur_nt, 4 << 3, 3 << 3));
;
	.dbg	line, "main.c", 3071
	lda     _lines_cleared_hundred
	clc
	adc     #$30
	jsr     pusha
	jsr     decsp2
	lda     _cur_nt
	ldy     #$01
	sta     (sp),y
	lda     #$20
	dey
	sta     (sp),y
	lda     #$18
	jsr     _get_ppu_addr
	jsr     _one_vram_buffer
;
; one_vram_buffer('0' + lines_cleared_ten, get_ppu_addr(cur_nt, 5 << 3, 3 << 3));
;
	.dbg	line, "main.c", 3072
	lda     _lines_cleared_ten
	clc
	adc     #$30
	jsr     pusha
	jsr     decsp2
	lda     _cur_nt
	ldy     #$01
	sta     (sp),y
	lda     #$28
	dey
	sta     (sp),y
	lda     #$18
	jsr     _get_ppu_addr
	jsr     _one_vram_buffer
;
; one_vram_buffer('0' + lines_cleared_one, get_ppu_addr(cur_nt, 6 << 3, 3 << 3));
;
	.dbg	line, "main.c", 3073
	lda     _lines_cleared_one
	clc
	adc     #$30
	jsr     pusha
	jsr     decsp2
	lda     _cur_nt
	ldy     #$01
	sta     (sp),y
	lda     #$30
	dey
	sta     (sp),y
	lda     #$18
	jsr     _get_ppu_addr
	jmp     _one_vram_buffer
	.dbg	line

.endproc

; ---------------------------------------------------------------
; void __near__ display_score (void)
; ---------------------------------------------------------------

.segment	"CODE"

.proc	_display_score: near

	.dbg	func, "display_score", "00", extern, "_display_score"

.segment	"BSS"

L14CB:
	.res	4,$00
L14CC:
	.res	1,$00

.segment	"CODE"

;
; temp_score = cur_score; //cur_score;
;
	.dbg	line, "main.c", 3081
	lda     _cur_score+3
	sta     sreg+1
	lda     _cur_score+2
	sta     sreg
	ldx     _cur_score+1
	lda     _cur_score
	sta     L14CB
	stx     L14CB+1
	ldy     sreg
	sty     L14CB+2
	ldy     sreg+1
	sty     L14CB+3
;
; multi_vram_buffer_horz("      ", 6, get_ppu_addr(cur_nt, 0, 6 << 3));
;
	.dbg	line, "main.c", 3084
	jsr     decsp3
	lda     #<(L14D0)
	ldy     #$01
	sta     (sp),y
	iny
	lda     #>(L14D0)
	sta     (sp),y
	lda     #$06
	ldy     #$00
	sta     (sp),y
	jsr     decsp2
	lda     _cur_nt
	iny
	sta     (sp),y
	lda     #$00
	dey
	sta     (sp),y
	lda     #$30
	jsr     _get_ppu_addr
	jsr     _multi_vram_buffer_horz
;
; i = 0;
;
	.dbg	line, "main.c", 3086
	lda     #$00
	sta     L14CC
;
; while (temp_score != 0)
;
	.dbg	line, "main.c", 3087
	jmp     L14DB
;
; unsigned char digit = temp_score % 10;
;
	.dbg	line, "main.c", 3089
L14D9:	lda     L14CB+3
	sta     sreg+1
	lda     L14CB+2
	sta     sreg
	ldx     L14CB+1
	lda     L14CB
	jsr     pusheax
	ldx     #$00
	lda     #$0A
	jsr     tosumod0ax
	jsr     pusha
;
; one_vram_buffer('0' + digit, get_ppu_addr(cur_nt, (6 << 3) - (i << 3), 6 << 3));
;
	.dbg	line, "main.c", 3090
	ldy     #$00
	lda     (sp),y
	clc
	adc     #$30
	jsr     pusha
	jsr     decsp2
	lda     _cur_nt
	ldy     #$01
	sta     (sp),y
	lda     #$30
	jsr     pusha0
	lda     L14CC
	jsr     aslax3
	jsr     tossubax
	ldy     #$00
	sta     (sp),y
	lda     #$30
	jsr     _get_ppu_addr
	jsr     _one_vram_buffer
;
; temp_score = temp_score / 10;
;
	.dbg	line, "main.c", 3092
	lda     L14CB+3
	sta     sreg+1
	lda     L14CB+2
	sta     sreg
	ldx     L14CB+1
	lda     L14CB
	jsr     pusheax
	ldx     #$00
	lda     #$0A
	jsr     tosudiv0ax
	sta     L14CB
	stx     L14CB+1
	ldy     sreg
	sty     L14CB+2
	ldy     sreg+1
	sty     L14CB+3
;
; ++i;
;
	.dbg	line, "main.c", 3093
	inc     L14CC
;
; }
;
	.dbg	line, "main.c", 3094
	jsr     incsp1
;
; while (temp_score != 0)
;
	.dbg	line, "main.c", 3087
L14DB:	lda     L14CB+3
	sta     sreg+1
	lda     L14CB+2
	sta     sreg
	ldx     L14CB+1
	lda     L14CB
	jsr     pusheax
	ldx     #$00
	stx     sreg
	stx     sreg+1
	txa
	jsr     tosneeax
	jne     L14D9
;
; }
;
	.dbg	line, "main.c", 3095
	rts
	.dbg	line

.endproc

; ---------------------------------------------------------------
; void __near__ display_highscore (void)
; ---------------------------------------------------------------

.segment	"CODE"

.proc	_display_highscore: near

	.dbg	func, "display_highscore", "00", extern, "_display_highscore"

.segment	"BSS"

L14EB:
	.res	4,$00
L14EC:
	.res	1,$00

.segment	"CODE"

;
; temp_score = high_scores[attack_style];
;
	.dbg	line, "main.c", 3103
	ldx     #$00
	lda     _attack_style
	jsr     aslax2
	clc
	adc     #<(_high_scores)
	tay
	txa
	adc     #>(_high_scores)
	tax
	tya
	jsr     ldeaxi
	sta     L14EB
	stx     L14EB+1
	ldy     sreg
	sty     L14EB+2
	ldy     sreg+1
	sty     L14EB+3
;
; multi_vram_buffer_horz("0000000", 7, get_ppu_addr(0, 17 << 3, 27 << 3));
;
	.dbg	line, "main.c", 3106
	jsr     decsp3
	lda     #<(L14F1)
	ldy     #$01
	sta     (sp),y
	iny
	lda     #>(L14F1)
	sta     (sp),y
	lda     #$07
	ldy     #$00
	sta     (sp),y
	jsr     decsp2
	tya
	iny
	sta     (sp),y
	lda     #$88
	dey
	sta     (sp),y
	lda     #$D8
	jsr     _get_ppu_addr
	jsr     _multi_vram_buffer_horz
;
; i = 0;
;
	.dbg	line, "main.c", 3108
	lda     #$00
	sta     L14EC
;
; while (temp_score != 0)
;
	.dbg	line, "main.c", 3109
	jmp     L14FC
;
; unsigned char digit = temp_score % 10;
;
	.dbg	line, "main.c", 3111
L14FA:	lda     L14EB+3
	sta     sreg+1
	lda     L14EB+2
	sta     sreg
	ldx     L14EB+1
	lda     L14EB
	jsr     pusheax
	ldx     #$00
	lda     #$0A
	jsr     tosumod0ax
	jsr     pusha
;
; one_vram_buffer('0' + digit, get_ppu_addr(0, (23 << 3) - (i << 3), 27 << 3));
;
	.dbg	line, "main.c", 3112
	ldy     #$00
	lda     (sp),y
	clc
	adc     #$30
	jsr     pusha
	jsr     decsp2
	lda     #$00
	ldy     #$01
	sta     (sp),y
	lda     #$B8
	jsr     pusha0
	lda     L14EC
	jsr     aslax3
	jsr     tossubax
	ldy     #$00
	sta     (sp),y
	lda     #$D8
	jsr     _get_ppu_addr
	jsr     _one_vram_buffer
;
; temp_score = temp_score / 10;
;
	.dbg	line, "main.c", 3114
	lda     L14EB+3
	sta     sreg+1
	lda     L14EB+2
	sta     sreg
	ldx     L14EB+1
	lda     L14EB
	jsr     pusheax
	ldx     #$00
	lda     #$0A
	jsr     tosudiv0ax
	sta     L14EB
	stx     L14EB+1
	ldy     sreg
	sty     L14EB+2
	ldy     sreg+1
	sty     L14EB+3
;
; ++i;
;
	.dbg	line, "main.c", 3115
	inc     L14EC
;
; }
;
	.dbg	line, "main.c", 3116
	jsr     incsp1
;
; while (temp_score != 0)
;
	.dbg	line, "main.c", 3109
L14FC:	lda     L14EB+3
	sta     sreg+1
	lda     L14EB+2
	sta     sreg
	ldx     L14EB+1
	lda     L14EB
	jsr     pusheax
	ldx     #$00
	stx     sreg
	stx     sreg+1
	txa
	jsr     tosneeax
	jne     L14FA
;
; }
;
	.dbg	line, "main.c", 3117
	rts
	.dbg	line

.endproc

; ---------------------------------------------------------------
; void __near__ display_level (void)
; ---------------------------------------------------------------

.segment	"CODE"

.proc	_display_level: near

	.dbg	func, "display_level", "00", extern, "_display_level"

.segment	"BSS"

L150C:
	.res	1,$00
L150D:
	.res	1,$00

.segment	"CODE"

;
; temp_level = cur_level;
;
	.dbg	line, "main.c", 3127
	lda     _cur_level
	sta     L150C
;
; i = 0;
;
	.dbg	line, "main.c", 3128
	lda     #$00
	sta     L150D
;
; if (cur_level < 10)
;
	.dbg	line, "main.c", 3130
	tax
	lda     _cur_level
	cmp     #$0A
	jcs     L1A01
;
; multi_vram_buffer_horz("00", 2, get_ppu_addr(cur_nt, 5 << 3, 9 << 3));
;
	.dbg	line, "main.c", 3132
	jsr     decsp3
	lda     #<(L1515)
	ldy     #$01
	sta     (sp),y
	iny
	lda     #>(L1515)
	sta     (sp),y
	tya
	ldy     #$00
	sta     (sp),y
	jsr     decsp2
	lda     _cur_nt
	iny
	sta     (sp),y
	lda     #$28
	dey
	sta     (sp),y
	lda     #$48
	jsr     _get_ppu_addr
	jsr     _multi_vram_buffer_horz
;
; while (temp_level != 0)
;
	.dbg	line, "main.c", 3135
	jmp     L151E
;
; unsigned char digit = temp_level % 10;
;
	.dbg	line, "main.c", 3137
L1A00:	lda     L150C
	jsr     pushax
	lda     #$0A
	jsr     tosumodax
	jsr     pusha
;
; one_vram_buffer('0' + digit, get_ppu_addr(cur_nt, (6 << 3) - (i << 3), 9 << 3));
;
	.dbg	line, "main.c", 3138
	ldy     #$00
	lda     (sp),y
	clc
	adc     #$30
	jsr     pusha
	jsr     decsp2
	lda     _cur_nt
	ldy     #$01
	sta     (sp),y
	lda     #$30
	jsr     pusha0
	lda     L150D
	jsr     aslax3
	jsr     tossubax
	ldy     #$00
	sta     (sp),y
	lda     #$48
	jsr     _get_ppu_addr
	jsr     _one_vram_buffer
;
; temp_level = temp_level / 10;
;
	.dbg	line, "main.c", 3140
	lda     L150C
	jsr     pusha0
	lda     #$0A
	jsr     tosudiva0
	sta     L150C
;
; ++i;
;
	.dbg	line, "main.c", 3141
	inc     L150D
;
; }
;
	.dbg	line, "main.c", 3142
	jsr     incsp1
;
; while (temp_level != 0)
;
	.dbg	line, "main.c", 3135
L151E:	ldx     #$00
L1A01:	lda     L150C
	bne     L1A00
;
; }
;
	.dbg	line, "main.c", 3143
	rts
	.dbg	line

.endproc

; ---------------------------------------------------------------
; void __near__ clear_rows_in_data (unsigned char)
; ---------------------------------------------------------------

.segment	"CODE"

.proc	_clear_rows_in_data: near

	.dbg	func, "clear_rows_in_data", "00", extern, "_clear_rows_in_data"
	.dbg	sym, "start_y", "00", auto, 0

.segment	"BSS"

L152E:
	.res	1,$00
L152F:
	.res	1,$00
L1530:
	.res	1,$00

.segment	"CODE"

;
; {
;
	.dbg	line, "main.c", 3148
	jsr     pusha
;
; i = 0;
;
	.dbg	line, "main.c", 3154
	lda     #$00
	sta     L152F
;
; prev_level = cur_level;
;
	.dbg	line, "main.c", 3155
	lda     _cur_level
	sta     L1530
;
; memfill(lines_cleared_y, 0xff, 4);
;
	.dbg	line, "main.c", 3158
	jsr     decsp3
	lda     #<(_lines_cleared_y)
	ldy     #$01
	sta     (sp),y
	iny
	lda     #>(_lines_cleared_y)
	sta     (sp),y
	lda     #$FF
	ldy     #$00
	sta     (sp),y
	ldx     #$00
	lda     #$04
	jsr     _memfill
;
; for (local_iy = start_y; local_iy > BOARD_OOB_END; --local_iy)
;
	.dbg	line, "main.c", 3161
	ldy     #$00
	lda     (sp),y
	sta     _local_iy
L1A07:	lda     _local_iy
	cmp     #$04
	jcc     L1A12
;
; line_complete = 1;
;
	.dbg	line, "main.c", 3165
	lda     #$01
	sta     L152E
;
; for (local_ix = 0; local_ix <= BOARD_END_X_PX_BOARD; ++local_ix)
;
	.dbg	line, "main.c", 3166
	lda     #$00
	sta     _local_ix
L1A08:	lda     _local_ix
	cmp     #$0A
	bcs     L1544
;
; if (game_board[TILE_TO_BOARD_INDEX(local_ix, local_iy)] == 0 || game_board[TILE_TO_BOARD_INDEX(local_ix, local_iy)] == 1)
;
	.dbg	line, "main.c", 3169
	ldy     _local_iy
	ldx     #$00
	lda     _board_lookup_y,y
	clc
	adc     _local_ix
	bcc     L1A02
	inx
L1A02:	sta     ptr1
	txa
	clc
	adc     #>(_game_board)
	sta     ptr1+1
	ldy     #<(_game_board)
	lda     (ptr1),y
	beq     L1A1C
	ldy     _local_iy
	ldx     #$00
	lda     _board_lookup_y,y
	clc
	adc     _local_ix
	bcc     L1A03
	inx
L1A03:	sta     ptr1
	txa
	clc
	adc     #>(_game_board)
	sta     ptr1+1
	ldy     #<(_game_board)
	lda     (ptr1),y
	cmp     #$01
	bne     L1A0C
;
; line_complete = 0;
;
	.dbg	line, "main.c", 3173
	lda     #$00
L1A1C:	sta     L152E
;
; break;
;
	.dbg	line, "main.c", 3174
	jmp     L1544
;
; for (local_ix = 0; local_ix <= BOARD_END_X_PX_BOARD; ++local_ix)
;
	.dbg	line, "main.c", 3166
L1A0C:	inc     _local_ix
	jmp     L1A08
;
; if (line_complete)
;
	.dbg	line, "main.c", 3181
L1544:	lda     L152E
	beq     L1A11
;
; for (local_ix = 0; local_ix < BOARD_WIDTH; ++local_ix)
;
	.dbg	line, "main.c", 3195
	lda     #$00
	sta     _local_ix
L1A0D:	lda     _local_ix
	cmp     #$0A
	bcs     L1561
;
; if (attack_row_status[local_ix] > ATTACK_QUEUE_SIZE && attack_row_status[local_ix] - (ATTACK_QUEUE_SIZE + 1) >= (BOARD_END_Y_PX_BOARD - local_iy))
;
	.dbg	line, "main.c", 3197
	ldy     _local_ix
	lda     _attack_row_status,y
	cmp     #$04
	bcc     L1A10
	ldy     _local_ix
	ldx     #$00
	lda     _attack_row_status,y
	sec
	sbc     #$04
	bcs     L1571
	dex
L1571:	jsr     pushax
	lda     #$17
	sec
	sbc     _local_iy
	jsr     tosicmp0
	bcc     L1A10
;
; hit_reaction_remaining = 60;
;
	.dbg	line, "main.c", 3199
	lda     #$3C
	sta     _hit_reaction_remaining
;
; for (local_ix = 0; local_ix < BOARD_WIDTH; ++local_ix)
;
	.dbg	line, "main.c", 3195
L1A10:	inc     _local_ix
	jmp     L1A0D
;
; inc_lines_cleared();
;
	.dbg	line, "main.c", 3204
L1561:	jsr     _inc_lines_cleared
;
; memcpy(&game_board[TILE_TO_BOARD_INDEX(0, local_iy)], empty_row, 10);
;
	.dbg	line, "main.c", 3207
	ldy     _local_iy
	lda     _board_lookup_y,y
	clc
	adc     #<(_game_board)
	tay
	lda     #$00
	adc     #>(_game_board)
	tax
	tya
	jsr     pushax
	lda     #<(_empty_row)
	ldx     #>(_empty_row)
	jsr     pushax
	ldx     #$00
	lda     #$0A
	jsr     _memcpy
;
; lines_cleared_y[i] = local_iy;
;
	.dbg	line, "main.c", 3211
	ldy     L152F
	lda     _local_iy
	sta     _lines_cleared_y,y
;
; ++i;
;
	.dbg	line, "main.c", 3214
	inc     L152F
;
; for (local_iy = start_y; local_iy > BOARD_OOB_END; --local_iy)
;
	.dbg	line, "main.c", 3161
L1A11:	dec     _local_iy
	jmp     L1A07
;
; if (i == 0 & is_tspin != 0)
;
	.dbg	line, "main.c", 3219
L1A12:	lda     L152F
	jsr     booleq
	jsr     pusha0
	lda     _is_tspin
	jsr     boolne
	jsr     tosanda0
	cmp     #$00
	beq     L1A13
;
; cur_score += (40 * is_tspin * (cur_level + 1));
;
	.dbg	line, "main.c", 3221
	lda     _is_tspin
	jsr     pusha0
	lda     #$28
	jsr     tosumula0
	jsr     pushax
	ldx     #$00
	lda     _cur_level
	clc
	adc     #$01
	bcc     L158D
	inx
L158D:	jsr     tosumulax
	ldy     #$00
	sty     sreg
	sty     sreg+1
	ldy     #<(_cur_score)
	sty     ptr1
	ldy     #>(_cur_score)
	jsr     laddeq
;
; display_score();
;
	.dbg	line, "main.c", 3222
	jsr     _display_score
;
; else if (i > 0)
;
	.dbg	line, "main.c", 3224
	jmp     incsp1
L1A13:	lda     L152F
	bne     L1A1E
;
; }
;
	.dbg	line, "main.c", 3290
	jmp     incsp1
;
; if (prev_level != cur_level)
;
	.dbg	line, "main.c", 3226
L1A1E:	lda     _cur_level
	cmp     L1530
	beq     L1A15
;
; if (i == 4|| (i == 3 & is_tspin != 0))
;
	.dbg	line, "main.c", 3228
	lda     L152F
	cmp     #$04
	beq     L1A14
	cmp     #$03
	jsr     booleq
	jsr     pusha0
	lda     _is_tspin
	jsr     boolne
	jsr     tosanda0
	cmp     #$00
	beq     L1594
;
; screen_shake_remaining = 5;
;
	.dbg	line, "main.c", 3230
L1A14:	lda     #$05
	sta     _screen_shake_remaining
;
; SFX_PLAY_WRAPPER(SOUND_LEVELUP_MULTI);
;
	.dbg	line, "main.c", 3231
	lda     _sfx_on
	beq     L1A17
	lda     #$08
;
; else
;
	.dbg	line, "main.c", 3233
	jmp     L1A1D
;
; SFX_PLAY_WRAPPER(SOUND_LEVELUP);
;
	.dbg	line, "main.c", 3235
L1594:	lda     _sfx_on
	beq     L1A17
	lda     #$07
;
; else if (i == 4 || (i == 3 & is_tspin != 0))
;
	.dbg	line, "main.c", 3238
	jmp     L1A1D
L1A15:	lda     L152F
	cmp     #$04
	beq     L1A16
	cmp     #$03
	jsr     booleq
	jsr     pusha0
	lda     _is_tspin
	jsr     boolne
	jsr     tosanda0
	cmp     #$00
	beq     L15A8
;
; screen_shake_remaining = 5;
;
	.dbg	line, "main.c", 3242
L1A16:	lda     #$05
	sta     _screen_shake_remaining
;
; SFX_PLAY_WRAPPER(SOUND_MULTIROW);
;
	.dbg	line, "main.c", 3243
	lda     _sfx_on
	beq     L1A17
	lda     #$03
;
; else
;
	.dbg	line, "main.c", 3245
	jmp     L1A1D
;
; SFX_PLAY_WRAPPER(SOUND_ROW);
;
	.dbg	line, "main.c", 3248
L15A8:	lda     _sfx_on
	beq     L1A17
	lda     #$02
L1A1D:	jsr     pusha
	lda     #$00
	jsr     _sfx_play
;
; switch (i)
;
	.dbg	line, "main.c", 3252
	ldx     #$00
L1A17:	lda     L152F
;
; }
;
	.dbg	line, "main.c", 3278
	cmp     #$01
	beq     L1A18
	cmp     #$02
	beq     L1A19
	cmp     #$03
	beq     L15C7
	cmp     #$04
	beq     L15CB
	jmp     L15CB
;
; line_score_mod = 40;
;
	.dbg	line, "main.c", 3256
L1A18:	lda     #$28
;
; break;
;
	.dbg	line, "main.c", 3257
	jmp     L1A1B
;
; line_score_mod = 100;
;
	.dbg	line, "main.c", 3262
L1A19:	lda     #$64
;
; break;
;
	.dbg	line, "main.c", 3263
	jmp     L1A1B
;
; line_score_mod = 300;
;
	.dbg	line, "main.c", 3268
L15C7:	ldx     #$01
	lda     #$2C
;
; break;
;
	.dbg	line, "main.c", 3269
	jmp     L1A1B
;
; line_score_mod = 1200;
;
	.dbg	line, "main.c", 3275
L15CB:	ldx     #$04
	lda     #$B0
L1A1B:	sta     _line_score_mod
	stx     _line_score_mod+1
;
; cur_score += (line_score_mod * (4*is_tspin + 1) * (cur_level + 1));
;
	.dbg	line, "main.c", 3279
	lda     _line_score_mod
	ldx     _line_score_mod+1
	jsr     pushax
	ldx     #$00
	lda     _is_tspin
	jsr     shlax2
	clc
	adc     #$01
	bcc     L15D3
	inx
L15D3:	jsr     tosumulax
	jsr     pushax
	ldx     #$00
	lda     _cur_level
	clc
	adc     #$01
	bcc     L15D5
	inx
L15D5:	jsr     tosumulax
	ldy     #$00
	sty     sreg
	sty     sreg+1
	ldy     #<(_cur_score)
	sty     ptr1
	ldy     #>(_cur_score)
	jsr     laddeq
;
; display_score();
;
	.dbg	line, "main.c", 3280
	jsr     _display_score
;
; if (hit_reaction_remaining > 0)
;
	.dbg	line, "main.c", 3283
	lda     _hit_reaction_remaining
	beq     L15D7
;
; draw_gameplay_sprites();
;
	.dbg	line, "main.c", 3285
	jsr     _draw_gameplay_sprites
;
; reveal_empty_rows_to_nt();
;
	.dbg	line, "main.c", 3287
L15D7:	jsr     _reveal_empty_rows_to_nt
;
; }
;
	.dbg	line, "main.c", 3290
	jmp     incsp1
	.dbg	line

.endproc

; ---------------------------------------------------------------
; void __near__ reveal_empty_rows_to_nt (void)
; ---------------------------------------------------------------

.segment	"CODE"

.proc	_reveal_empty_rows_to_nt: near

	.dbg	func, "reveal_empty_rows_to_nt", "00", extern, "_reveal_empty_rows_to_nt"

.segment	"BSS"

L15DC:
	.res	1,$00
L15DD:
	.res	1,$00

.segment	"CODE"

;
; delay(1);
;
	.dbg	line, "main.c", 3303
	lda     #$01
	jsr     _delay
;
; clear_vram_buffer();
;
	.dbg	line, "main.c", 3304
	jsr     _clear_vram_buffer
;
; for (ix = 4; ix >= 0; --ix)
;
	.dbg	line, "main.c", 3307
	lda     #$04
	sta     L15DC
L1A22:	ldx     L15DC
	bpl     L1A25
;
; try_collapse_empty_row_data();
;
	.dbg	line, "main.c", 3346
	jmp     _try_collapse_empty_row_data
;
; for (iy = 0; iy < BOARD_HEIGHT; ++iy)
;
	.dbg	line, "main.c", 3312
L1A25:	lda     #$00
	sta     L15DD
L1A23:	lda     L15DD
	cmp     #$14
	bcs     L15EC
;
; copy_board_data[iy] = game_board[TILE_TO_BOARD_INDEX(ix, iy + BOARD_OOB_END + 1)];
;
	.dbg	line, "main.c", 3314
	lda     #<(_copy_board_data)
	ldx     #>(_copy_board_data)
	clc
	adc     L15DD
	bcc     L15F6
	inx
L15F6:	sta     sreg
	stx     sreg+1
	ldx     #$00
	lda     L15DD
	clc
	adc     #$03
	bcc     L1A20
	inx
	clc
L1A20:	adc     #$01
	bcc     L15FE
	inx
L15FE:	sta     ptr1
	txa
	clc
	adc     #>(_board_lookup_y)
	sta     ptr1+1
	ldy     #<(_board_lookup_y)
	lda     (ptr1),y
	sta     ptr1
	ldx     #$00
	lda     L15DC
	bpl     L1600
	dex
L1600:	clc
	adc     ptr1
	bcc     L1A1F
	inx
L1A1F:	sta     ptr1
	txa
	clc
	adc     #>(_game_board)
	sta     ptr1+1
	ldy     #<(_game_board)
	lda     (ptr1),y
	ldy     #$00
	sta     (sreg),y
;
; for (iy = 0; iy < BOARD_HEIGHT; ++iy)
;
	.dbg	line, "main.c", 3312
	inc     L15DD
	jmp     L1A23
;
; copy_board_data,
;
	.dbg	line, "main.c", 3318
L15EC:	jsr     decsp3
	lda     #<(_copy_board_data)
	ldy     #$01
	sta     (sp),y
	iny
	lda     #>(_copy_board_data)
	sta     (sp),y
;
; BOARD_HEIGHT,
;
	.dbg	line, "main.c", 3319
	lda     #$14
	ldy     #$00
	sta     (sp),y
;
; cur_nt,
;
	.dbg	line, "main.c", 3321
	jsr     decsp2
	lda     _cur_nt
	iny
	sta     (sp),y
;
; BOARD_START_X_PX + (ix << 3),
;
	.dbg	line, "main.c", 3322
	lda     L15DC
	asl     a
	asl     a
	asl     a
	clc
	adc     #$60
	dey
	sta     (sp),y
;
; BOARD_START_Y_PX + ((BOARD_OOB_END + 1) << 3)));
;
	.dbg	line, "main.c", 3323
	lda     #$30
	jsr     _get_ppu_addr
	jsr     _multi_vram_buffer_vert
;
; for (iy = 0; iy < BOARD_HEIGHT; ++iy)
;
	.dbg	line, "main.c", 3327
	lda     #$00
	sta     L15DD
L1A24:	lda     L15DD
	cmp     #$14
	bcs     L160F
;
; copy_board_data[iy] = game_board[TILE_TO_BOARD_INDEX(BOARD_END_X_PX_BOARD - ix, iy + BOARD_OOB_END + 1)];
;
	.dbg	line, "main.c", 3329
	lda     #<(_copy_board_data)
	ldx     #>(_copy_board_data)
	clc
	adc     L15DD
	bcc     L1619
	inx
L1619:	jsr     pushax
	ldx     #$00
	lda     L15DD
	clc
	adc     #$03
	bcc     L1A21
	inx
	clc
L1A21:	adc     #$01
	bcc     L1621
	inx
L1621:	sta     ptr1
	txa
	clc
	adc     #>(_board_lookup_y)
	sta     ptr1+1
	ldy     #<(_board_lookup_y)
	lda     (ptr1),y
	jsr     pusha0
	lda     #$09
	jsr     pusha0
	lda     L15DC
	bpl     L1623
	ldx     #$FF
L1623:	jsr     tossubax
	jsr     tosaddax
	sta     ptr1
	txa
	clc
	adc     #>(_game_board)
	sta     ptr1+1
	ldy     #<(_game_board)
	lda     (ptr1),y
	ldy     #$00
	jsr     staspidx
;
; for (iy = 0; iy < BOARD_HEIGHT; ++iy)
;
	.dbg	line, "main.c", 3327
	inc     L15DD
	jmp     L1A24
;
; copy_board_data,
;
	.dbg	line, "main.c", 3333
L160F:	jsr     decsp3
	lda     #<(_copy_board_data)
	ldy     #$01
	sta     (sp),y
	iny
	lda     #>(_copy_board_data)
	sta     (sp),y
;
; BOARD_HEIGHT,
;
	.dbg	line, "main.c", 3334
	lda     #$14
	ldy     #$00
	sta     (sp),y
;
; cur_nt,
;
	.dbg	line, "main.c", 3336
	jsr     decsp2
	lda     _cur_nt
	iny
	sta     (sp),y
;
; BOARD_START_X_PX + ((BOARD_END_X_PX_BOARD - ix) << 3),
;
	.dbg	line, "main.c", 3337
	lda     #$09
	jsr     pusha0
	lda     L15DC
	bpl     L162D
	ldx     #$FF
L162D:	jsr     tossubax
	asl     a
	asl     a
	asl     a
	clc
	adc     #$60
	ldy     #$00
	sta     (sp),y
;
; BOARD_START_Y_PX + ((BOARD_OOB_END + 1) << 3)));
;
	.dbg	line, "main.c", 3338
	lda     #$30
	jsr     _get_ppu_addr
	jsr     _multi_vram_buffer_vert
;
; delay(5);
;
	.dbg	line, "main.c", 3341
	lda     #$05
	jsr     _delay
;
; clear_vram_buffer();
;
	.dbg	line, "main.c", 3342
	jsr     _clear_vram_buffer
;
; for (ix = 4; ix >= 0; --ix)
;
	.dbg	line, "main.c", 3307
	dec     L15DC
	jpl     L1A22
	jmp     L1A22
	.dbg	line

.endproc

; ---------------------------------------------------------------
; void __near__ try_collapse_empty_row_data (void)
; ---------------------------------------------------------------

.segment	"CODE"

.proc	_try_collapse_empty_row_data: near

	.dbg	func, "try_collapse_empty_row_data", "00", extern, "_try_collapse_empty_row_data"

.segment	"BSS"

L1637:
	.res	1,$00
L1638:
	.res	1,$00
L1639:
	.res	1,$00

.segment	"CODE"

;
; iy = BOARD_END_Y_PX_BOARD - lines_cleared_y[0];
;
	.dbg	line, "main.c", 3359
	lda     #$17
	sec
	sbc     _lines_cleared_y
	sta     L1638
;
; for (ix = 0; ix < BOARD_WIDTH; ++ix)
;
	.dbg	line, "main.c", 3363
	lda     #$00
	sta     L1637
L1A26:	lda     L1637
	cmp     #$0A
	bcs     L1A2B
;
; if (attack_row_status[ix] > ATTACK_QUEUE_SIZE && attack_row_status[ix] - (ATTACK_QUEUE_SIZE + 1) >= (iy))
;
	.dbg	line, "main.c", 3365
	ldy     L1637
	lda     _attack_row_status,y
	cmp     #$04
	bcc     L1A2A
	ldy     L1637
	ldx     #$00
	lda     _attack_row_status,y
	sec
	sbc     #$04
	bcs     L164E
	dex
L164E:	cmp     L1638
	txa
	sbc     #$00
	bcs     L1653
	jmp     L1A2A
;
; --attack_row_status[ix];
;
	.dbg	line, "main.c", 3370
L1651:	lda     #<(_attack_row_status)
	ldx     #>(_attack_row_status)
	clc
	adc     L1637
	bcc     L1659
	inx
L1659:	sta     ptr1
	stx     ptr1+1
	ldy     #$00
	lda     (ptr1),y
	sec
	sbc     #$01
	sta     (ptr1),y
;
; delay(1);
;
	.dbg	line, "main.c", 3371
	lda     #$01
	jsr     _delay
;
; draw_gameplay_sprites();
;
	.dbg	line, "main.c", 3372
	jsr     _draw_gameplay_sprites
;
; clear_vram_buffer();
;
	.dbg	line, "main.c", 3373
	jsr     _clear_vram_buffer
;
; while (attack_row_status[ix] > 0)
;
	.dbg	line, "main.c", 3367
L1653:	ldy     L1637
	lda     _attack_row_status,y
	bne     L1651
;
; for (ix = 0; ix < BOARD_WIDTH; ++ix)
;
	.dbg	line, "main.c", 3363
L1A2A:	inc     L1637
	jmp     L1A26
;
; for (i = 3; i >= 0; --i)
;
	.dbg	line, "main.c", 3379
L1A2B:	lda     #$03
	sta     L1639
L1A2C:	ldx     L1639
	bmi     L165F
;
; iy = lines_cleared_y[i];
;
	.dbg	line, "main.c", 3384
	ldy     L1639
	lda     _lines_cleared_y,y
	sta     L1638
;
; if (iy != 0xff)
;
	.dbg	line, "main.c", 3386
	cmp     #$FF
	beq     L1A2D
;
; memcpy(game_board_temp, game_board, sizeof(game_board));
;
	.dbg	line, "main.c", 3390
	ldy     #$00
L1674:	lda     _game_board,y
	sta     _game_board_temp,y
	iny
	cpy     #$F0
	bne     L1674
;
; memcpy(&game_board[10], game_board_temp, iy * 10);
;
	.dbg	line, "main.c", 3392
	lda     #<(_game_board+10)
	ldx     #>(_game_board+10)
	jsr     pushax
	lda     #<(_game_board_temp)
	ldx     #>(_game_board_temp)
	jsr     pushax
	ldx     #$00
	lda     L1638
	jsr     mulax10
	jsr     _memcpy
;
; for (i = 3; i >= 0; --i)
;
	.dbg	line, "main.c", 3379
L1A2D:	dec     L1639
	bpl     L1A2C
	jmp     L1A2C
;
; copy_board_to_nt();
;
	.dbg	line, "main.c", 3397
L165F:	jmp     _copy_board_to_nt
	.dbg	line

.endproc

; ---------------------------------------------------------------
; void __near__ copy_board_to_nt (void)
; ---------------------------------------------------------------

.segment	"CODE"

.proc	_copy_board_to_nt: near

	.dbg	func, "copy_board_to_nt", "00", extern, "_copy_board_to_nt"

.segment	"CODE"

;
; if (state == STATE_GAME)
;
	.dbg	line, "main.c", 3406
	lda     _state
	cmp     #$04
	bne     L1A30
;
; draw_gameplay_sprites();
;
	.dbg	line, "main.c", 3408
	jsr     _draw_gameplay_sprites
;
; for (local_ix = 0; local_ix <= BOARD_END_X_PX_BOARD; ++local_ix)
;
	.dbg	line, "main.c", 3414
L1A30:	lda     #$00
	sta     _local_ix
L1A31:	lda     _local_ix
	cmp     #$0A
	bcc     L1A33
;
; }
;
	.dbg	line, "main.c", 3458
	rts
;
; for (local_iy = 0; local_iy < BOARD_HEIGHT; ++local_iy)
;
	.dbg	line, "main.c", 3417
L1A33:	lda     #$00
	sta     _local_iy
L1A32:	lda     _local_iy
	cmp     #$14
	bcs     L1688
;
; copy_board_data[local_iy] = game_board[TILE_TO_BOARD_INDEX(local_ix, local_iy + BOARD_OOB_END + 1)];
;
	.dbg	line, "main.c", 3419
	lda     #<(_copy_board_data)
	ldx     #>(_copy_board_data)
	clc
	adc     _local_iy
	bcc     L1692
	inx
L1692:	sta     sreg
	stx     sreg+1
	ldx     #$00
	lda     _local_iy
	clc
	adc     #$03
	bcc     L1A2F
	inx
	clc
L1A2F:	adc     #$01
	bcc     L169A
	inx
L169A:	sta     ptr1
	txa
	clc
	adc     #>(_board_lookup_y)
	sta     ptr1+1
	ldy     #<(_board_lookup_y)
	ldx     #$00
	lda     (ptr1),y
	clc
	adc     _local_ix
	bcc     L1A2E
	inx
L1A2E:	sta     ptr1
	txa
	clc
	adc     #>(_game_board)
	sta     ptr1+1
	ldy     #<(_game_board)
	lda     (ptr1),y
	ldy     #$00
	sta     (sreg),y
;
; for (local_iy = 0; local_iy < BOARD_HEIGHT; ++local_iy)
;
	.dbg	line, "main.c", 3417
	inc     _local_iy
	jmp     L1A32
;
; copy_board_data,
;
	.dbg	line, "main.c", 3428
L1688:	jsr     decsp3
	lda     #<(_copy_board_data)
	ldy     #$01
	sta     (sp),y
	iny
	lda     #>(_copy_board_data)
	sta     (sp),y
;
; BOARD_HEIGHT,
;
	.dbg	line, "main.c", 3429
	lda     #$14
	ldy     #$00
	sta     (sp),y
;
; cur_nt,
;
	.dbg	line, "main.c", 3431
	jsr     decsp2
	lda     _cur_nt
	iny
	sta     (sp),y
;
; BOARD_START_X_PX + (local_ix << 3),
;
	.dbg	line, "main.c", 3432
	lda     _local_ix
	asl     a
	asl     a
	asl     a
	clc
	adc     #$60
	dey
	sta     (sp),y
;
; BOARD_START_Y_PX + ((BOARD_OOB_END + 1) << 3)));
;
	.dbg	line, "main.c", 3433
	lda     #$30
	jsr     _get_ppu_addr
	jsr     _multi_vram_buffer_vert
;
; if (local_ix % 3 == 0)
;
	.dbg	line, "main.c", 3436
	lda     _local_ix
	jsr     pusha0
	lda     #$03
	jsr     tosumoda0
	cpx     #$00
	bne     L1681
	cmp     #$00
	bne     L1681
;
; delay(1);
;
	.dbg	line, "main.c", 3442
	lda     #$01
	jsr     _delay
;
; clear_vram_buffer();
;
	.dbg	line, "main.c", 3443
	jsr     _clear_vram_buffer
;
; for (local_ix = 0; local_ix <= BOARD_END_X_PX_BOARD; ++local_ix)
;
	.dbg	line, "main.c", 3414
L1681:	inc     _local_ix
	jmp     L1A31
	.dbg	line

.endproc

; ---------------------------------------------------------------
; void __near__ add_block_at_bottom (void)
; ---------------------------------------------------------------

.segment	"CODE"

.proc	_add_block_at_bottom: near

	.dbg	func, "add_block_at_bottom", "00", extern, "_add_block_at_bottom"

.segment	"BSS"

L16AF:
	.res	1,$00
L16B0:
	.res	1,$00
L16B1:
	.res	1,$00

.segment	"CODE"

;
; attacks = 0;
;
	.dbg	line, "main.c", 3467
	lda     #$00
	sta     L16B1
;
; for (ix = 0; ix < BOARD_WIDTH; ++ix)
;
	.dbg	line, "main.c", 3474
	sta     L16AF
L1A3A:	lda     L16AF
	sec
	sbc     #$0A
	bvc     L16BD
	eor     #$80
L16BD:	jpl     L1A42
;
; if (attack_row_status[ix] > 0)
;
	.dbg	line, "main.c", 3476
	ldy     L16AF
	lda     _attack_row_status,y
	jeq     L1A41
;
; if (attack_row_status[ix] >= ATTACK_MAX)
;
	.dbg	line, "main.c", 3478
	ldy     L16AF
	lda     _attack_row_status,y
	cmp     #$0A
	bcc     L1A3B
;
; row_to_clear = ix;
;
	.dbg	line, "main.c", 3490
	lda     L16AF
	sta     _row_to_clear
;
; break;
;
	.dbg	line, "main.c", 3497
	jmp     L1A42
;
; ++attacks;
;
	.dbg	line, "main.c", 3499
L1A3B:	inc     L16B1
;
; ++attack_row_status[ix];
;
	.dbg	line, "main.c", 3500
	lda     #<(_attack_row_status)
	ldx     #>(_attack_row_status)
	clc
	adc     L16AF
	bcc     L16D1
	inx
L16D1:	sta     ptr1
	stx     ptr1+1
	ldy     #$00
	lda     #$01
	clc
	adc     (ptr1),y
	sta     (ptr1),y
;
; if (attack_row_status[ix] > ATTACK_QUEUE_SIZE)
;
	.dbg	line, "main.c", 3502
	ldy     L16AF
	lda     _attack_row_status,y
	cmp     #$04
	jcc     L1A41
;
; for (iy = BOARD_END_Y_PX_BOARD; iy > BOARD_OOB_END; --iy)
;
	.dbg	line, "main.c", 3504
	lda     #$17
	sta     L16B0
L1A3C:	lda     L16B0
	cmp     #$04
	ldx     #$00
	jcc     L1A40
;
; if (game_board[TILE_TO_BOARD_INDEX(ix, iy)] == 0)
;
	.dbg	line, "main.c", 3507
	ldy     L16B0
	lda     _board_lookup_y,y
	sta     ptr1
	lda     L16AF
	bpl     L16E8
	dex
L16E8:	clc
	adc     ptr1
	bcc     L1A34
	inx
L1A34:	sta     ptr1
	txa
	clc
	adc     #>(_game_board)
	sta     ptr1+1
	ldy     #<(_game_board)
	lda     (ptr1),y
	bne     L1A3E
;
; for (; iy <= BOARD_END_Y_PX_BOARD; ++iy)
;
	.dbg	line, "main.c", 3510
	tax
L1A3D:	lda     L16B0
	cmp     #$18
	bcs     L1A40
;
; game_board[TILE_TO_BOARD_INDEX(ix, iy)] = game_board[TILE_TO_BOARD_INDEX(ix, iy + 1)];
;
	.dbg	line, "main.c", 3512
	ldy     L16B0
	lda     _board_lookup_y,y
	sta     ptr1
	lda     L16AF
	bpl     L16F7
	dex
L16F7:	clc
	adc     ptr1
	bcc     L1A38
	inx
	clc
L1A38:	adc     #<(_game_board)
	sta     sreg
	txa
	adc     #>(_game_board)
	sta     sreg+1
	ldx     #$00
	lda     L16B0
	clc
	adc     #$01
	bcc     L16FE
	inx
L16FE:	sta     ptr1
	txa
	clc
	adc     #>(_board_lookup_y)
	sta     ptr1+1
	ldy     #<(_board_lookup_y)
	lda     (ptr1),y
	sta     ptr1
	ldx     #$00
	lda     L16AF
	bpl     L1700
	dex
L1700:	clc
	adc     ptr1
	bcc     L1A36
	inx
L1A36:	sta     ptr1
	txa
	clc
	adc     #>(_game_board)
	sta     ptr1+1
	ldy     #<(_game_board)
	lda     (ptr1),y
	ldy     #$00
	sta     (sreg),y
;
; for (; iy <= BOARD_END_Y_PX_BOARD; ++iy)
;
	.dbg	line, "main.c", 3510
	ldx     #$00
	inc     L16B0
	jmp     L1A3D
;
; for (iy = BOARD_END_Y_PX_BOARD; iy > BOARD_OOB_END; --iy)
;
	.dbg	line, "main.c", 3504
L1A3E:	dec     L16B0
	jmp     L1A3C
;
; game_board[TILE_TO_BOARD_INDEX(ix, BOARD_END_Y_PX_BOARD)] = garbage_types[cur_garbage_type]; //     0x60; //0xf7; //(attack_row_status[ix] == (ATTACK_QUEUE_SIZE + 1)) ? 0xf9 : 0xf8;
;
	.dbg	line, "main.c", 3519
L1A40:	lda     L16AF
	bpl     L1708
	dex
L1708:	clc
	adc     _board_lookup_y+23
	bcc     L1A39
	inx
	clc
L1A39:	adc     #<(_game_board)
	sta     ptr1
	txa
	adc     #>(_game_board)
	sta     ptr1+1
	ldy     _cur_garbage_type
	lda     _garbage_types,y
	ldy     #$00
	sta     (ptr1),y
;
; ++cur_garbage_type;
;
	.dbg	line, "main.c", 3520
	inc     _cur_garbage_type
;
; if (cur_garbage_type >= NUM_GARBAGE_TYPES)
;
	.dbg	line, "main.c", 3521
	lda     _cur_garbage_type
	cmp     #$03
	bcc     L1A41
;
; cur_garbage_type = 0;
;
	.dbg	line, "main.c", 3523
	sty     _cur_garbage_type
;
; for (ix = 0; ix < BOARD_WIDTH; ++ix)
;
	.dbg	line, "main.c", 3474
L1A41:	inc     L16AF
	jpl     L1A3A
	jmp     L1A3A
;
; if (attacks == 0)
;
	.dbg	line, "main.c", 3532
L1A42:	lda     L16B1
	bne     L1711
;
; attack_row_status[rand() % BOARD_WIDTH] = 1;
;
	.dbg	line, "main.c", 3535
	jsr     _rand
	jsr     pushax
	ldx     #$00
	lda     #$0A
	jsr     tosmoda0
	clc
	adc     #<(_attack_row_status)
	sta     ptr1
	txa
	adc     #>(_attack_row_status)
	sta     ptr1+1
	lda     #$01
	ldy     #$00
	sta     (ptr1),y
;
; copy_board_to_nt();
;
	.dbg	line, "main.c", 3539
L1711:	jmp     _copy_board_to_nt
	.dbg	line

.endproc

; ---------------------------------------------------------------
; void __near__ add_row_at_bottom (void)
; ---------------------------------------------------------------

.segment	"CODE"

.proc	_add_row_at_bottom: near

	.dbg	func, "add_row_at_bottom", "00", extern, "_add_row_at_bottom"

.segment	"CODE"

;
; memfill(&game_board[TILE_TO_BOARD_INDEX(0, BOARD_END_Y_PX_BOARD - kill_row_cur)], 1, BOARD_WIDTH);
;
	.dbg	line, "main.c", 3544
	jsr     decsp3
	lda     #$17
	sec
	sbc     _kill_row_cur
	sta     ptr1
	lda     #$00
	clc
	adc     #>(_board_lookup_y)
	sta     ptr1+1
	ldy     #<(_board_lookup_y)
	lda     (ptr1),y
	clc
	adc     #<(_game_board)
	tay
	lda     #$00
	adc     #>(_game_board)
	tax
	tya
	ldy     #$01
	sta     (sp),y
	iny
	txa
	sta     (sp),y
	lda     #$01
	ldy     #$00
	sta     (sp),y
	ldx     #$00
	lda     #$0A
	jsr     _memfill
;
; ++kill_row_cur;
;
	.dbg	line, "main.c", 3545
	inc     _kill_row_cur
;
; copy_board_to_nt();
;
	.dbg	line, "main.c", 3546
	jmp     _copy_board_to_nt
	.dbg	line

.endproc

; ---------------------------------------------------------------
; void __near__ reset_gameplay_area (void)
; ---------------------------------------------------------------

.segment	"CODE"

.proc	_reset_gameplay_area: near

	.dbg	func, "reset_gameplay_area", "00", extern, "_reset_gameplay_area"

.segment	"CODE"

;
; memfill(game_board, 0, BOARD_SIZE);
;
	.dbg	line, "main.c", 3551
	jsr     decsp3
	lda     #<(_game_board)
	ldy     #$01
	sta     (sp),y
	iny
	lda     #>(_game_board)
	sta     (sp),y
	lda     #$00
	tay
	sta     (sp),y
	tax
	lda     #$F0
	jsr     _memfill
;
; lines_cleared_one = lines_cleared_ten = lines_cleared_hundred = cur_score = 0;
;
	.dbg	line, "main.c", 3554
	ldx     #$00
	txa
	sta     _cur_score
	sta     _cur_score+1
	sta     _cur_score+2
	sta     _cur_score+3
	sta     _lines_cleared_hundred
	sta     _lines_cleared_ten
	sta     _lines_cleared_one
;
; cur_level = saved_starting_level;
;
	.dbg	line, "main.c", 3555
	lda     _saved_starting_level
	sta     _cur_level
;
; fall_rate = fall_rates_per_level[MIN(cur_level, sizeof(fall_rates_per_level))];
;
	.dbg	line, "main.c", 3556
	cmp     #$1E
	bcs     L1A43
	lda     _cur_level
	jmp     L173C
L1A43:	lda     #$1E
L173C:	sta     ptr1
	txa
	clc
	adc     #>(_fall_rates_per_level)
	sta     ptr1+1
	ldy     #<(_fall_rates_per_level)
	lda     (ptr1),y
	sta     _fall_rate
;
; row_to_clear = -1;
;
	.dbg	line, "main.c", 3557
	lda     #$FF
	sta     _row_to_clear
;
; delay_lock_remaining = -1;
;
	.dbg	line, "main.c", 3558
	sta     _delay_lock_remaining
;
; kill_row_cur = 0;
;
	.dbg	line, "main.c", 3559
	stx     _kill_row_cur
;
; start_delay_remaining = START_DELAY;
;
	.dbg	line, "main.c", 3560
	lda     #$78
	sta     _start_delay_remaining
;
; time_of_day = 0;
;
	.dbg	line, "main.c", 3563
	txa
	sta     _time_of_day
;
; pal_bg(palette_bg_list[time_of_day]);
;
	.dbg	line, "main.c", 3564
	jsr     aslax4
	clc
	adc     #<(_palette_bg_list)
	tay
	txa
	adc     #>(_palette_bg_list)
	tax
	tya
	jsr     _pal_bg
;
; pal_spr(palette_sp);
;
	.dbg	line, "main.c", 3565
	lda     #<(_palette_sp)
	ldx     #>(_palette_sp)
	jsr     _pal_spr
;
; one_vram_buffer(0x8, get_ppu_addr(2, 4 << 3, 9 << 3));
;
	.dbg	line, "main.c", 3568
	lda     #$08
	jsr     pusha
	jsr     decsp2
	lda     #$02
	ldy     #$01
	sta     (sp),y
	lda     #$20
	dey
	sta     (sp),y
	lda     #$48
	jsr     _get_ppu_addr
	jsr     _one_vram_buffer
;
; display_lines_cleared();
;
	.dbg	line, "main.c", 3570
	jsr     _display_lines_cleared
;
; display_score();
;
	.dbg	line, "main.c", 3571
	jsr     _display_score
;
; display_level();
;
	.dbg	line, "main.c", 3572
	jsr     _display_level
;
; oam_clear();
;
	.dbg	line, "main.c", 3574
	jsr     _oam_clear
;
; multi_vram_buffer_horz(empty_row, 4, get_ppu_addr(cur_nt, 120, 16));
;
	.dbg	line, "main.c", 3577
	jsr     decsp3
	lda     #<(_empty_row)
	ldy     #$01
	sta     (sp),y
	iny
	lda     #>(_empty_row)
	sta     (sp),y
	lda     #$04
	ldy     #$00
	sta     (sp),y
	jsr     decsp2
	lda     _cur_nt
	iny
	sta     (sp),y
	lda     #$78
	dey
	sta     (sp),y
	lda     #$10
	jsr     _get_ppu_addr
	jsr     _multi_vram_buffer_horz
;
; multi_vram_buffer_horz(empty_row, 4, get_ppu_addr(cur_nt, 120, 24));
;
	.dbg	line, "main.c", 3578
	jsr     decsp3
	lda     #<(_empty_row)
	ldy     #$01
	sta     (sp),y
	iny
	lda     #>(_empty_row)
	sta     (sp),y
	lda     #$04
	ldy     #$00
	sta     (sp),y
	jsr     decsp2
	lda     _cur_nt
	iny
	sta     (sp),y
	lda     #$78
	dey
	sta     (sp),y
	lda     #$18
	jsr     _get_ppu_addr
	jsr     _multi_vram_buffer_horz
;
; copy_board_to_nt();
;
	.dbg	line, "main.c", 3581
	jmp     _copy_board_to_nt
	.dbg	line

.endproc

; ---------------------------------------------------------------
; void __near__ display_song (void)
; ---------------------------------------------------------------

.segment	"CODE"

.proc	_display_song: near

	.dbg	func, "display_song", "00", extern, "_display_song"

.segment	"BSS"

L1769:
	.res	1,$00
L176A:
	.res	1,$00

.segment	"CODE"

;
; temp = test_song;
;
	.dbg	line, "main.c", 3590
	lda     _test_song
	sta     L1769
;
; i = 0;
;
	.dbg	line, "main.c", 3591
	lda     #$00
	sta     L176A
;
; if (test_song < 100)
;
	.dbg	line, "main.c", 3593
	tax
	lda     _test_song
	cmp     #$64
	bcs     L1A45
;
; multi_vram_buffer_horz("000", 3, get_ppu_addr(0, (4 << 3), (14 << 3)));
;
	.dbg	line, "main.c", 3595
	jsr     decsp3
	lda     #<(L1772)
	ldy     #$01
	sta     (sp),y
	iny
	lda     #>(L1772)
	sta     (sp),y
	lda     #$03
	ldy     #$00
	sta     (sp),y
	jsr     decsp2
	txa
	iny
	sta     (sp),y
	lda     #$20
	dey
	sta     (sp),y
	lda     #$70
	jsr     _get_ppu_addr
	jsr     _multi_vram_buffer_horz
;
; while (temp != 0)
;
	.dbg	line, "main.c", 3598
	jmp     L177D
;
; unsigned char digit = temp % 10;
;
	.dbg	line, "main.c", 3600
L1A44:	lda     L1769
	jsr     pushax
	lda     #$0A
	jsr     tosumodax
	jsr     pusha
;
; one_vram_buffer('0' + digit, get_ppu_addr(0, (6 << 3) - (i << 3), (14 << 3)));
;
	.dbg	line, "main.c", 3601
	ldy     #$00
	lda     (sp),y
	clc
	adc     #$30
	jsr     pusha
	jsr     decsp2
	lda     #$00
	ldy     #$01
	sta     (sp),y
	lda     #$30
	jsr     pusha0
	lda     L176A
	jsr     aslax3
	jsr     tossubax
	ldy     #$00
	sta     (sp),y
	lda     #$70
	jsr     _get_ppu_addr
	jsr     _one_vram_buffer
;
; temp = temp / 10;
;
	.dbg	line, "main.c", 3603
	lda     L1769
	jsr     pusha0
	lda     #$0A
	jsr     tosudiva0
	sta     L1769
;
; ++i;
;
	.dbg	line, "main.c", 3604
	inc     L176A
;
; }
;
	.dbg	line, "main.c", 3605
	jsr     incsp1
;
; while (temp != 0)
;
	.dbg	line, "main.c", 3598
L177D:	ldx     #$00
L1A45:	lda     L1769
	bne     L1A44
;
; }
;
	.dbg	line, "main.c", 3606
	rts
	.dbg	line

.endproc

; ---------------------------------------------------------------
; void __near__ display_sound (void)
; ---------------------------------------------------------------

.segment	"CODE"

.proc	_display_sound: near

	.dbg	func, "display_sound", "00", extern, "_display_sound"

.segment	"BSS"

L178E:
	.res	1,$00
L178F:
	.res	1,$00

.segment	"CODE"

;
; temp = test_sound;
;
	.dbg	line, "main.c", 3614
	lda     _test_sound
	sta     L178E
;
; i = 0;
;
	.dbg	line, "main.c", 3615
	lda     #$00
	sta     L178F
;
; if (test_song < 100)
;
	.dbg	line, "main.c", 3617
	tax
	lda     _test_song
	cmp     #$64
	bcs     L1A47
;
; multi_vram_buffer_horz("000", 3, get_ppu_addr(0, (25 << 3), (14 << 3)));
;
	.dbg	line, "main.c", 3619
	jsr     decsp3
	lda     #<(L1797)
	ldy     #$01
	sta     (sp),y
	iny
	lda     #>(L1797)
	sta     (sp),y
	lda     #$03
	ldy     #$00
	sta     (sp),y
	jsr     decsp2
	txa
	iny
	sta     (sp),y
	lda     #$C8
	dey
	sta     (sp),y
	lda     #$70
	jsr     _get_ppu_addr
	jsr     _multi_vram_buffer_horz
;
; while (temp != 0)
;
	.dbg	line, "main.c", 3622
	jmp     L17A2
;
; unsigned char digit = temp % 10;
;
	.dbg	line, "main.c", 3624
L1A46:	lda     L178E
	jsr     pushax
	lda     #$0A
	jsr     tosumodax
	jsr     pusha
;
; one_vram_buffer('0' + digit, get_ppu_addr(0, (27 << 3) - (i << 3), (14 << 3)));
;
	.dbg	line, "main.c", 3625
	ldy     #$00
	lda     (sp),y
	clc
	adc     #$30
	jsr     pusha
	jsr     decsp2
	lda     #$00
	ldy     #$01
	sta     (sp),y
	lda     #$D8
	jsr     pusha0
	lda     L178F
	jsr     aslax3
	jsr     tossubax
	ldy     #$00
	sta     (sp),y
	lda     #$70
	jsr     _get_ppu_addr
	jsr     _one_vram_buffer
;
; temp = temp / 10;
;
	.dbg	line, "main.c", 3627
	lda     L178E
	jsr     pusha0
	lda     #$0A
	jsr     tosudiva0
	sta     L178E
;
; ++i;
;
	.dbg	line, "main.c", 3628
	inc     L178F
;
; }
;
	.dbg	line, "main.c", 3629
	jsr     incsp1
;
; while (temp != 0)
;
	.dbg	line, "main.c", 3622
L17A2:	ldx     #$00
L1A47:	lda     L178E
	bne     L1A46
;
; }
;
	.dbg	line, "main.c", 3630
	rts
	.dbg	line

.endproc

; ---------------------------------------------------------------
; void __near__ display_options (void)
; ---------------------------------------------------------------

.segment	"CODE"

.proc	_display_options: near

	.dbg	func, "display_options", "00", extern, "_display_options"

.segment	"DATA"

L17B3:
	.byte	$10

.segment	"CODE"

;
; delay(1);
;
	.dbg	line, "main.c", 3639
	lda     #$01
	jsr     _delay
;
; clear_vram_buffer();
;
	.dbg	line, "main.c", 3640
	jsr     _clear_vram_buffer
;
; multi_vram_buffer_horz(&starting_levels[cur_level], 1, get_ppu_addr(0, 17 << 3, start_y << 3));
;
	.dbg	line, "main.c", 3642
	jsr     decsp3
	lda     #<(_starting_levels)
	ldx     #>(_starting_levels)
	clc
	adc     _cur_level
	bcc     L17BB
	inx
L17BB:	ldy     #$01
	sta     (sp),y
	iny
	txa
	sta     (sp),y
	lda     #$01
	ldy     #$00
	sta     (sp),y
	jsr     decsp2
	tya
	iny
	sta     (sp),y
	lda     #$88
	dey
	sta     (sp),y
	lda     L17B3
	asl     a
	asl     a
	asl     a
	jsr     _get_ppu_addr
	jsr     _multi_vram_buffer_horz
;
; multi_vram_buffer_horz(attack_style_strings[attack_style], ATTACK_STRING_LEN, get_ppu_addr(0, 17 << 3, (start_y + 2) << 3));
;
	.dbg	line, "main.c", 3643
	jsr     decsp3
	ldx     #$00
	lda     _attack_style
	jsr     mulax7
	clc
	adc     #<(_attack_style_strings)
	tay
	txa
	adc     #>(_attack_style_strings)
	tax
	tya
	ldy     #$01
	sta     (sp),y
	iny
	txa
	sta     (sp),y
	lda     #$07
	ldy     #$00
	sta     (sp),y
	jsr     decsp2
	tya
	iny
	sta     (sp),y
	lda     #$88
	dey
	sta     (sp),y
	lda     L17B3
	clc
	adc     #$02
	asl     a
	asl     a
	asl     a
	jsr     _get_ppu_addr
	jsr     _multi_vram_buffer_horz
;
; multi_vram_buffer_horz(off_on_string[music_on], OFF_ON_STRING_LEN, get_ppu_addr(0, 17 << 3, (start_y + 4) << 3));
;
	.dbg	line, "main.c", 3644
	jsr     decsp3
	ldx     #$00
	lda     _music_on
	jsr     aslax2
	clc
	adc     #<(_off_on_string)
	tay
	txa
	adc     #>(_off_on_string)
	tax
	tya
	ldy     #$01
	sta     (sp),y
	iny
	txa
	sta     (sp),y
	lda     #$04
	ldy     #$00
	sta     (sp),y
	jsr     decsp2
	tya
	iny
	sta     (sp),y
	lda     #$88
	dey
	sta     (sp),y
	lda     L17B3
	clc
	adc     #$04
	asl     a
	asl     a
	asl     a
	jsr     _get_ppu_addr
	jsr     _multi_vram_buffer_horz
;
; multi_vram_buffer_horz(off_on_string[sfx_on], OFF_ON_STRING_LEN, get_ppu_addr(0, 17 << 3, (start_y + 6) << 3));
;
	.dbg	line, "main.c", 3645
	jsr     decsp3
	ldx     #$00
	lda     _sfx_on
	jsr     aslax2
	clc
	adc     #<(_off_on_string)
	tay
	txa
	adc     #>(_off_on_string)
	tax
	tya
	ldy     #$01
	sta     (sp),y
	iny
	txa
	sta     (sp),y
	lda     #$04
	ldy     #$00
	sta     (sp),y
	jsr     decsp2
	tya
	iny
	sta     (sp),y
	lda     #$88
	dey
	sta     (sp),y
	lda     L17B3
	clc
	adc     #$06
	asl     a
	asl     a
	asl     a
	jsr     _get_ppu_addr
	jsr     _multi_vram_buffer_horz
;
; multi_vram_buffer_horz(hard_drop_types[hard_drops_on], HARD_DROP_STRING_LEN, get_ppu_addr(0, 17 << 3, (start_y + 8) << 3));
;
	.dbg	line, "main.c", 3646
	jsr     decsp3
	ldx     #$00
	lda     _hard_drops_on
	jsr     aslax2
	clc
	adc     #<(_hard_drop_types)
	tay
	txa
	adc     #>(_hard_drop_types)
	tax
	tya
	ldy     #$01
	sta     (sp),y
	iny
	txa
	sta     (sp),y
	lda     #$04
	ldy     #$00
	sta     (sp),y
	jsr     decsp2
	tya
	iny
	sta     (sp),y
	lda     #$88
	dey
	sta     (sp),y
	lda     L17B3
	clc
	adc     #$08
	asl     a
	asl     a
	asl     a
	jsr     _get_ppu_addr
	jsr     _multi_vram_buffer_horz
;
; multi_vram_buffer_horz(option_empty, 2, get_ppu_addr(0, 7 << 3, (start_y) << 3));
;
	.dbg	line, "main.c", 3649
	jsr     decsp3
	lda     #<(_option_empty)
	ldy     #$01
	sta     (sp),y
	iny
	lda     #>(_option_empty)
	sta     (sp),y
	tya
	ldy     #$00
	sta     (sp),y
	jsr     decsp2
	tya
	iny
	sta     (sp),y
	lda     #$38
	dey
	sta     (sp),y
	lda     L17B3
	asl     a
	asl     a
	asl     a
	jsr     _get_ppu_addr
	jsr     _multi_vram_buffer_horz
;
; multi_vram_buffer_horz(option_empty, 2, get_ppu_addr(0, 7 << 3, (start_y + 2) << 3));
;
	.dbg	line, "main.c", 3650
	jsr     decsp3
	lda     #<(_option_empty)
	ldy     #$01
	sta     (sp),y
	iny
	lda     #>(_option_empty)
	sta     (sp),y
	tya
	ldy     #$00
	sta     (sp),y
	jsr     decsp2
	tya
	iny
	sta     (sp),y
	lda     #$38
	dey
	sta     (sp),y
	lda     L17B3
	clc
	adc     #$02
	asl     a
	asl     a
	asl     a
	jsr     _get_ppu_addr
	jsr     _multi_vram_buffer_horz
;
; multi_vram_buffer_horz(option_empty, 2, get_ppu_addr(0, 7 << 3, (start_y + 4) << 3));
;
	.dbg	line, "main.c", 3651
	jsr     decsp3
	lda     #<(_option_empty)
	ldy     #$01
	sta     (sp),y
	iny
	lda     #>(_option_empty)
	sta     (sp),y
	tya
	ldy     #$00
	sta     (sp),y
	jsr     decsp2
	tya
	iny
	sta     (sp),y
	lda     #$38
	dey
	sta     (sp),y
	lda     L17B3
	clc
	adc     #$04
	asl     a
	asl     a
	asl     a
	jsr     _get_ppu_addr
	jsr     _multi_vram_buffer_horz
;
; multi_vram_buffer_horz(option_empty, 2, get_ppu_addr(0, 7 << 3, (start_y + 6) << 3));
;
	.dbg	line, "main.c", 3652
	jsr     decsp3
	lda     #<(_option_empty)
	ldy     #$01
	sta     (sp),y
	iny
	lda     #>(_option_empty)
	sta     (sp),y
	tya
	ldy     #$00
	sta     (sp),y
	jsr     decsp2
	tya
	iny
	sta     (sp),y
	lda     #$38
	dey
	sta     (sp),y
	lda     L17B3
	clc
	adc     #$06
	asl     a
	asl     a
	asl     a
	jsr     _get_ppu_addr
	jsr     _multi_vram_buffer_horz
;
; multi_vram_buffer_horz(option_empty, 2, get_ppu_addr(0, 7 << 3, (start_y + 8) << 3));
;
	.dbg	line, "main.c", 3653
	jsr     decsp3
	lda     #<(_option_empty)
	ldy     #$01
	sta     (sp),y
	iny
	lda     #>(_option_empty)
	sta     (sp),y
	tya
	ldy     #$00
	sta     (sp),y
	jsr     decsp2
	tya
	iny
	sta     (sp),y
	lda     #$38
	dey
	sta     (sp),y
	lda     L17B3
	clc
	adc     #$08
	asl     a
	asl     a
	asl     a
	jsr     _get_ppu_addr
	jsr     _multi_vram_buffer_horz
;
; multi_vram_buffer_horz(option_icon, 2, get_ppu_addr(0, 7 << 3, (start_y + (cur_option << 1) << 3)));
;
	.dbg	line, "main.c", 3655
	jsr     decsp3
	lda     #<(_option_icon)
	ldy     #$01
	sta     (sp),y
	iny
	lda     #>(_option_icon)
	sta     (sp),y
	tya
	ldy     #$00
	sta     (sp),y
	jsr     decsp2
	tya
	iny
	sta     (sp),y
	lda     #$38
	dey
	sta     (sp),y
	lda     _cur_option
	asl     a
	bcc     L1A4A
	clc
L1A4A:	adc     L17B3
	asl     a
	asl     a
	asl     a
	jsr     _get_ppu_addr
	jsr     _multi_vram_buffer_horz
;
; delay(1);
;
	.dbg	line, "main.c", 3658
	lda     #$01
	jsr     _delay
;
; clear_vram_buffer();
;
	.dbg	line, "main.c", 3659
	jmp     _clear_vram_buffer
	.dbg	line

.endproc

; ---------------------------------------------------------------
; void __near__ fade_to_black (void)
; ---------------------------------------------------------------

.segment	"CODE"

.proc	_fade_to_black: near

	.dbg	func, "fade_to_black", "00", extern, "_fade_to_black"

.segment	"CODE"

;
; pal_bright(3);
;
	.dbg	line, "main.c", 3665
	lda     #$03
	jsr     _pal_bright
;
; delay(2);
;
	.dbg	line, "main.c", 3666
	lda     #$02
	jsr     _delay
;
; pal_bright(2);
;
	.dbg	line, "main.c", 3667
	lda     #$02
	jsr     _pal_bright
;
; delay(2);
;
	.dbg	line, "main.c", 3668
	lda     #$02
	jsr     _delay
;
; pal_bright(1);
;
	.dbg	line, "main.c", 3669
	lda     #$01
	jsr     _pal_bright
;
; delay(2);
;
	.dbg	line, "main.c", 3670
	lda     #$02
	jsr     _delay
;
; pal_bright(0);
;
	.dbg	line, "main.c", 3671
	lda     #$00
	jsr     _pal_bright
;
; delay(2);
;
	.dbg	line, "main.c", 3672
	lda     #$02
	jmp     _delay
	.dbg	line

.endproc

; ---------------------------------------------------------------
; void __near__ fade_from_black (void)
; ---------------------------------------------------------------

.segment	"CODE"

.proc	_fade_from_black: near

	.dbg	func, "fade_from_black", "00", extern, "_fade_from_black"

.segment	"CODE"

;
; pal_bright(1);
;
	.dbg	line, "main.c", 3677
	lda     #$01
	jsr     _pal_bright
;
; delay(2);
;
	.dbg	line, "main.c", 3678
	lda     #$02
	jsr     _delay
;
; pal_bright(2);
;
	.dbg	line, "main.c", 3679
	lda     #$02
	jsr     _pal_bright
;
; delay(2);
;
	.dbg	line, "main.c", 3680
	lda     #$02
	jsr     _delay
;
; pal_bright(3);
;
	.dbg	line, "main.c", 3681
	lda     #$03
	jsr     _pal_bright
;
; delay(2);
;
	.dbg	line, "main.c", 3682
	lda     #$02
	jsr     _delay
;
; pal_bright(4);
;
	.dbg	line, "main.c", 3683
	lda     #$04
	jsr     _pal_bright
;
; delay(2);
;
	.dbg	line, "main.c", 3684
	lda     #$02
	jmp     _delay
	.dbg	line

.endproc

; ---------------------------------------------------------------
; void __near__ difficulty_to_leaderboard_pos (unsigned char)
; ---------------------------------------------------------------

.segment	"CODE"

.proc	_difficulty_to_leaderboard_pos: near

	.dbg	func, "difficulty_to_leaderboard_pos", "00", extern, "_difficulty_to_leaderboard_pos"
	.dbg	sym, "dif", "00", auto, 0

.segment	"CODE"

;
; {
;
	.dbg	line, "main.c", 3688
	jsr     pusha
;
; switch (dif)
;
	.dbg	line, "main.c", 3689
	ldy     #$00
	lda     (sp),y
;
; }
;
	.dbg	line, "main.c", 3707
	beq     L1A4C
	cmp     #$01
	beq     L1A4D
	cmp     #$02
	beq     L1A4E
	cmp     #$03
	beq     L1A4F
	jmp     incsp1
;
; in_x = 4;
;
	.dbg	line, "main.c", 3692
L1A4C:	lda     #$04
	sta     _in_x
;
; in_y = 12;
;
	.dbg	line, "main.c", 3693
	lda     #$0C
;
; break;
;
	.dbg	line, "main.c", 3694
	jmp     L1A4B
;
; in_x = 18;
;
	.dbg	line, "main.c", 3696
L1A4D:	lda     #$12
	sta     _in_x
;
; in_y = 12;
;
	.dbg	line, "main.c", 3697
	lda     #$0C
;
; break;
;
	.dbg	line, "main.c", 3698
	jmp     L1A4B
;
; in_x = 4;
;
	.dbg	line, "main.c", 3700
L1A4E:	lda     #$04
;
; break;
;
	.dbg	line, "main.c", 3702
	jmp     L1A51
;
; in_x = 18;
;
	.dbg	line, "main.c", 3704
L1A4F:	lda     #$12
L1A51:	sta     _in_x
;
; in_y = 22;
;
	.dbg	line, "main.c", 3705
	lda     #$16
L1A4B:	sta     _in_y
;
; }
;
	.dbg	line, "main.c", 3708
	jmp     incsp1
	.dbg	line

.endproc

; ---------------------------------------------------------------
; void __near__ debug_fill_nametables (void)
; ---------------------------------------------------------------

.segment	"CODE"

.proc	_debug_fill_nametables: near

	.dbg	func, "debug_fill_nametables", "00", extern, "_debug_fill_nametables"

.segment	"CODE"

;
; vram_adr(NTADR_A(0, 0));
;
	.dbg	line, "main.c", 3753
	ldx     #$20
	lda     #$00
	jsr     _vram_adr
;
; vram_fill('a', NAMETABLE_PATTERN_SIZE);
;
	.dbg	line, "main.c", 3754
	lda     #$61
	jsr     pusha
	ldx     #$03
	lda     #$C0
	jsr     _vram_fill
;
; vram_adr(NTADR_B(0, 0));
;
	.dbg	line, "main.c", 3755
	ldx     #$24
	lda     #$00
	jsr     _vram_adr
;
; vram_fill('b', NAMETABLE_PATTERN_SIZE);
;
	.dbg	line, "main.c", 3756
	lda     #$62
	jsr     pusha
	ldx     #$03
	lda     #$C0
	jsr     _vram_fill
;
; vram_adr(NTADR_B(0, 0));
;
	.dbg	line, "main.c", 3757
	ldx     #$24
	lda     #$00
	jsr     _vram_adr
;
; vram_fill('c', NAMETABLE_PATTERN_SIZE);
;
	.dbg	line, "main.c", 3758
	lda     #$63
	jsr     pusha
	ldx     #$03
	lda     #$C0
	jsr     _vram_fill
;
; vram_adr(NTADR_D(0, 0));
;
	.dbg	line, "main.c", 3759
	ldx     #$2C
	lda     #$00
	jsr     _vram_adr
;
; vram_fill('d', NAMETABLE_PATTERN_SIZE);
;
	.dbg	line, "main.c", 3760
	lda     #$64
	jsr     pusha
	ldx     #$03
	lda     #$C0
	jmp     _vram_fill
	.dbg	line

.endproc

; ---------------------------------------------------------------
; void __near__ debug_draw_board_area (void)
; ---------------------------------------------------------------

.segment	"CODE"

.proc	_debug_draw_board_area: near

	.dbg	func, "debug_draw_board_area", "00", extern, "_debug_draw_board_area"

.segment	"CODE"

;
; oam_spr(BOARD_START_X_PX, BOARD_START_Y_PX, 0x01, 0);
;
	.dbg	line, "main.c", 3765
	jsr     decsp3
	lda     #$60
	ldy     #$02
	sta     (sp),y
	lda     #$10
	dey
	sta     (sp),y
	tya
	dey
	sta     (sp),y
	tya
	jsr     _oam_spr
;
; oam_spr(BOARD_END_X_PX, BOARD_START_Y_PX, 0x01, 0);
;
	.dbg	line, "main.c", 3766
	jsr     decsp3
	lda     #$A8
	ldy     #$02
	sta     (sp),y
	lda     #$10
	dey
	sta     (sp),y
	tya
	dey
	sta     (sp),y
	tya
	jsr     _oam_spr
;
; oam_spr(BOARD_START_X_PX, BOARD_END_Y_PX, 0x01, 0);
;
	.dbg	line, "main.c", 3767
	jsr     decsp3
	lda     #$60
	ldy     #$02
	sta     (sp),y
	lda     #$C8
	dey
	sta     (sp),y
	tya
	dey
	sta     (sp),y
	tya
	jsr     _oam_spr
;
; oam_spr(BOARD_END_X_PX, BOARD_END_Y_PX, 0x01, 0);
;
	.dbg	line, "main.c", 3768
	jsr     decsp3
	lda     #$A8
	ldy     #$02
	sta     (sp),y
	lda     #$C8
	dey
	sta     (sp),y
	tya
	dey
	sta     (sp),y
	tya
	jmp     _oam_spr
	.dbg	line

.endproc

; ---------------------------------------------------------------
; void __near__ debug_copy_board_data_to_nt (void)
; ---------------------------------------------------------------

.segment	"CODE"

.proc	_debug_copy_board_data_to_nt: near

	.dbg	func, "debug_copy_board_data_to_nt", "00", extern, "_debug_copy_board_data_to_nt"

.segment	"CODE"

;
; delay(1);
;
	.dbg	line, "main.c", 3778
	lda     #$01
	jsr     _delay
;
; clear_vram_buffer();
;
	.dbg	line, "main.c", 3779
	jsr     _clear_vram_buffer
;
; for (local_ix = 0; local_ix <= BOARD_END_X_PX_BOARD; ++local_ix)
;
	.dbg	line, "main.c", 3781
	lda     #$00
	sta     _local_ix
L1A54:	lda     _local_ix
	cmp     #$0A
	bcc     L1A57
;
; }
;
	.dbg	line, "main.c", 3804
	rts
;
; for (local_iy = 0; local_iy < BOARD_HEIGHT; ++local_iy)
;
	.dbg	line, "main.c", 3784
L1A57:	lda     #$00
	sta     _local_iy
L1A55:	lda     _local_iy
	cmp     #$14
	bcs     L18E2
;
; copy_board_data[local_iy] = '0' + game_board[TILE_TO_BOARD_INDEX(local_ix, local_iy + BOARD_OOB_END + 1)];
;
	.dbg	line, "main.c", 3786
	lda     #<(_copy_board_data)
	ldx     #>(_copy_board_data)
	clc
	adc     _local_iy
	bcc     L18EC
	inx
L18EC:	sta     sreg
	stx     sreg+1
	ldx     #$00
	lda     _local_iy
	clc
	adc     #$03
	bcc     L1A53
	inx
	clc
L1A53:	adc     #$01
	bcc     L18F4
	inx
L18F4:	sta     ptr1
	txa
	clc
	adc     #>(_board_lookup_y)
	sta     ptr1+1
	ldy     #<(_board_lookup_y)
	ldx     #$00
	lda     (ptr1),y
	clc
	adc     _local_ix
	bcc     L1A52
	inx
L1A52:	sta     ptr1
	txa
	clc
	adc     #>(_game_board)
	sta     ptr1+1
	ldy     #<(_game_board)
	lda     (ptr1),y
	clc
	adc     #$30
	ldy     #$00
	sta     (sreg),y
;
; for (local_iy = 0; local_iy < BOARD_HEIGHT; ++local_iy)
;
	.dbg	line, "main.c", 3784
	inc     _local_iy
	jmp     L1A55
;
; copy_board_data,
;
	.dbg	line, "main.c", 3790
L18E2:	jsr     decsp3
	lda     #<(_copy_board_data)
	ldy     #$01
	sta     (sp),y
	iny
	lda     #>(_copy_board_data)
	sta     (sp),y
;
; BOARD_HEIGHT,
;
	.dbg	line, "main.c", 3791
	lda     #$14
	ldy     #$00
	sta     (sp),y
;
; cur_nt,
;
	.dbg	line, "main.c", 3793
	jsr     decsp2
	lda     _cur_nt
	iny
	sta     (sp),y
;
; BOARD_START_X_PX + (local_ix << 3),
;
	.dbg	line, "main.c", 3794
	lda     _local_ix
	asl     a
	asl     a
	asl     a
	clc
	adc     #$60
	dey
	sta     (sp),y
;
; BOARD_START_Y_PX + ((BOARD_OOB_END + 1) << 3)));
;
	.dbg	line, "main.c", 3795
	lda     #$30
	jsr     _get_ppu_addr
	jsr     _multi_vram_buffer_vert
;
; if (local_ix % 4 == 0)
;
	.dbg	line, "main.c", 3798
	lda     _local_ix
	and     #$03
	bne     L1A56
;
; delay(1);
;
	.dbg	line, "main.c", 3800
	lda     #$01
	jsr     _delay
;
; clear_vram_buffer();
;
	.dbg	line, "main.c", 3801
	jsr     _clear_vram_buffer
;
; for (local_ix = 0; local_ix <= BOARD_END_X_PX_BOARD; ++local_ix)
;
	.dbg	line, "main.c", 3781
L1A56:	inc     _local_ix
	jmp     L1A54
	.dbg	line

.endproc

; ---------------------------------------------------------------
; void __near__ debug_display_number (unsigned char, unsigned char)
; ---------------------------------------------------------------

.segment	"CODE"

.proc	_debug_display_number: near

	.dbg	func, "debug_display_number", "00", extern, "_debug_display_number"
	.dbg	sym, "num", "00", auto, 1
	.dbg	sym, "index", "00", auto, 0

.segment	"BSS"

L190A:
	.res	1,$00
L190B:
	.res	1,$00

.segment	"CODE"

;
; {
;
	.dbg	line, "main.c", 3807
	jsr     pusha
;
; temp = num;
;
	.dbg	line, "main.c", 3813
	ldy     #$01
	lda     (sp),y
	sta     L190A
;
; i = 0;
;
	.dbg	line, "main.c", 3814
	lda     #$00
	sta     L190B
;
; if (temp < 100)
;
	.dbg	line, "main.c", 3816
	tax
	lda     L190A
	cmp     #$64
	jcs     L1A59
;
; multi_vram_buffer_horz("000", 3, get_ppu_addr(cur_nt, 28 << 3, 232 - (index << 3)));
;
	.dbg	line, "main.c", 3818
	jsr     decsp3
	lda     #<(L1913)
	sta     (sp),y
	iny
	lda     #>(L1913)
	sta     (sp),y
	lda     #$03
	ldy     #$00
	sta     (sp),y
	jsr     decsp2
	lda     _cur_nt
	iny
	sta     (sp),y
	lda     #$E0
	dey
	sta     (sp),y
	lda     #$E8
	jsr     pusha0
	ldy     #$07
	lda     (sp),y
	jsr     aslax3
	jsr     tossubax
	jsr     _get_ppu_addr
	jsr     _multi_vram_buffer_horz
;
; while (temp != 0)
;
	.dbg	line, "main.c", 3821
	jmp     L191D
;
; unsigned char digit = temp % 10;
;
	.dbg	line, "main.c", 3823
L1A58:	lda     L190A
	jsr     pushax
	lda     #$0A
	jsr     tosumodax
	jsr     pusha
;
; one_vram_buffer('0' + digit, get_ppu_addr(cur_nt, (30 << 3) - (i << 3), 232 - (index << 3)));
;
	.dbg	line, "main.c", 3824
	ldy     #$00
	lda     (sp),y
	clc
	adc     #$30
	jsr     pusha
	jsr     decsp2
	lda     _cur_nt
	ldy     #$01
	sta     (sp),y
	lda     #$F0
	jsr     pusha0
	lda     L190B
	jsr     aslax3
	jsr     tossubax
	ldy     #$00
	sta     (sp),y
	lda     #$E8
	jsr     pusha0
	ldy     #$06
	lda     (sp),y
	jsr     aslax3
	jsr     tossubax
	jsr     _get_ppu_addr
	jsr     _one_vram_buffer
;
; temp = temp / 10;
;
	.dbg	line, "main.c", 3826
	lda     L190A
	jsr     pusha0
	lda     #$0A
	jsr     tosudiva0
	sta     L190A
;
; ++i;
;
	.dbg	line, "main.c", 3827
	inc     L190B
;
; }
;
	.dbg	line, "main.c", 3828
	jsr     incsp1
;
; while (temp != 0)
;
	.dbg	line, "main.c", 3821
L191D:	ldx     #$00
L1A59:	lda     L190A
	bne     L1A58
;
; delay(1);
;
	.dbg	line, "main.c", 3831
	lda     #$01
	jsr     _delay
;
; clear_vram_buffer();
;
	.dbg	line, "main.c", 3832
	jsr     _clear_vram_buffer
;
; }
;
	.dbg	line, "main.c", 3833
	jmp     incsp2
	.dbg	line

.endproc

; ---------------------------------------------------------------
; void __near__ main (void)
; ---------------------------------------------------------------

.segment	"CODE"

.proc	_main: near

	.dbg	func, "main", "00", extern, "_main"

.segment	"CODE"

;
; ppu_off(); // screen off
;
	.dbg	line, "main.c", 339
	jsr     _ppu_off
;
; bank_spr(1);
;
	.dbg	line, "main.c", 353
	lda     #$01
	jsr     _bank_spr
;
; set_vram_buffer(); // do at least once, sets a pointer to a buffer
;
	.dbg	line, "main.c", 355
	jsr     _set_vram_buffer
;
; clear_vram_buffer();
;
	.dbg	line, "main.c", 356
	jsr     _clear_vram_buffer
;
; off_nt = 0;
;
	.dbg	line, "main.c", 359
	lda     #$00
	sta     _off_nt
;
; cur_nt = 2;
;
	.dbg	line, "main.c", 360
	lda     #$02
	sta     _cur_nt
;
; vram_adr(NTADR_A(0, 0));
;
	.dbg	line, "main.c", 362
	ldx     #$20
	lda     #$00
	jsr     _vram_adr
;
; vram_unrle(title_screen);
;
	.dbg	line, "main.c", 363
	lda     #<(_title_screen)
	ldx     #>(_title_screen)
	jsr     _vram_unrle
;
; vram_adr(NTADR_C(0, 0));
;
	.dbg	line, "main.c", 364
	ldx     #$28
	lda     #$00
	jsr     _vram_adr
;
; vram_unrle(game_area);
;
	.dbg	line, "main.c", 365
	lda     #<(_game_area)
	ldx     #>(_game_area)
	jsr     _vram_unrle
;
; scroll_y = 0x1df;
;
	.dbg	line, "main.c", 367
	ldx     #$01
	lda     #$DF
	sta     _scroll_y
	stx     _scroll_y+1
;
; scroll(0, scroll_y); // shift the bg down 1 pixel
;
	.dbg	line, "main.c", 368
	jsr     push0
	lda     _scroll_y
	ldx     _scroll_y+1
	jsr     _scroll
;
; ppu_on_all(); // turn on screen
;
	.dbg	line, "main.c", 371
	jsr     _ppu_on_all
;
; attack_style = ATTACK_ON_TIME; // ATTACK_ON_LAND;
;
	.dbg	line, "main.c", 375
	lda     #$01
	sta     _attack_style
;
; music_on = 1;
;
	.dbg	line, "main.c", 376
	sta     _music_on
;
; sfx_on = 1;
;
	.dbg	line, "main.c", 377
	sta     _sfx_on
;
; hard_drops_on = 1;
;
	.dbg	line, "main.c", 378
	sta     _hard_drops_on
;
; block_style = BLOCK_STYLE_CLASSIC;
;
	.dbg	line, "main.c", 379
	sta     _block_style
;
; state = 0xff; // uninitialized so that we don't trigger a "leaving state".
;
	.dbg	line, "main.c", 380
	lda     #$FF
	sta     _state
;
; cur_garbage_type = 0;
;
	.dbg	line, "main.c", 381
	lda     #$00
	sta     _cur_garbage_type
;
; pal_bright(0);
;
	.dbg	line, "main.c", 397
	jsr     _pal_bright
;
; go_to_state(STATE_BOOT);
;
	.dbg	line, "main.c", 398
	lda     #$00
	jsr     _go_to_state
;
; fade_from_black();
;
	.dbg	line, "main.c", 399
	jsr     _fade_from_black
;
; ppu_wait_nmi(); // wait till beginning of the frame
;
	.dbg	line, "main.c", 448
L0CD4:	jsr     _ppu_wait_nmi
;
; ++tick_count;
;
	.dbg	line, "main.c", 452
	inc     _tick_count
;
; ++tick_count_large;
;
	.dbg	line, "main.c", 453
	inc     _tick_count_large
	bne     L0CDB
	inc     _tick_count_large+1
;
; ++ticks_in_state_large;
;
	.dbg	line, "main.c", 454
L0CDB:	inc     _ticks_in_state_large
	bne     L0CDD
	inc     _ticks_in_state_large+1
;
; pad1 = pad_poll(0);     // read the first controller
;
	.dbg	line, "main.c", 456
L0CDD:	lda     #$00
	jsr     _pad_poll
	sta     _pad1
;
; pad1_new = get_pad_new(0); // newly pressed button. do pad_poll first
;
	.dbg	line, "main.c", 457
	lda     #$00
	jsr     _get_pad_new
	sta     _pad1_new
;
; pad2 = pad_poll(1);
;
	.dbg	line, "main.c", 459
	lda     #$01
	jsr     _pad_poll
	sta     _pad2
;
; pad2_new = get_pad_new(1);
;
	.dbg	line, "main.c", 460
	lda     #$01
	jsr     _get_pad_new
	sta     _pad2_new
;
; pad_all = pad1 | pad2;
;
	.dbg	line, "main.c", 464
	lda     _pad2
	ora     _pad1
	sta     _pad_all
;
; pad_all_new = pad1_new | pad2_new;
;
	.dbg	line, "main.c", 465
	lda     _pad2_new
	ora     _pad1_new
	sta     _pad_all_new
;
; clear_vram_buffer(); // do at the beginning of each frame
;
	.dbg	line, "main.c", 574
	jsr     _clear_vram_buffer
;
; if (state != STATE_MENU)
;
	.dbg	line, "main.c", 578
	lda     _state
	cmp     #$02
	beq     L1A64
;
; if (pad_all & PAD_A && pad_all & PAD_B && pad_all & PAD_SELECT && pad_all & PAD_START)
;
	.dbg	line, "main.c", 580
	lda     _pad_all
	and     #$80
	beq     L1A64
	lda     _pad_all
	and     #$40
	beq     L1A64
	lda     _pad_all
	and     #$20
	beq     L1A64
	lda     _pad_all
	and     #$10
	beq     L1A64
;
; go_to_state(STATE_MENU);
;
	.dbg	line, "main.c", 582
	lda     #$02
	jsr     _go_to_state
;
; switch (state)
;
	.dbg	line, "main.c", 587
L1A64:	lda     _state
;
; }
;
	.dbg	line, "main.c", 1532
	beq     L1A65
	cmp     #$01
	beq     L1A67
	cmp     #$02
	beq     L0D0F
	cmp     #$03
	jeq     L1A6E
	cmp     #$04
	jeq     L1A87
	cmp     #$05
	jeq     L0E7A
	cmp     #$06
	jeq     L1A97
	cmp     #$07
	jeq     L1A99
	jmp     L1AAE
;
; if (tick_count == 120 || pad_all_new & PAD_ALL_BUTTONS)
;
	.dbg	line, "main.c", 591
L1A65:	lda     _tick_count
	cmp     #$78
	beq     L1A66
	lda     _pad_all_new
	and     #$F0
	jeq     L1AAE
;
; fade_to_black();
;
	.dbg	line, "main.c", 593
L1A66:	jsr     _fade_to_black
;
; go_to_state(STATE_TY);
;
	.dbg	line, "main.c", 594
	lda     #$01
	jsr     _go_to_state
;
; fade_from_black();
;
	.dbg	line, "main.c", 595
	jsr     _fade_from_black
;
; break;
;
	.dbg	line, "main.c", 597
	jmp     L1AAE
;
; if (tick_count == 104 || pad_all_new & PAD_ALL_BUTTONS)
;
	.dbg	line, "main.c", 602
L1A67:	lda     _tick_count
	cmp     #$68
	beq     L1A68
	lda     _pad_all_new
	and     #$F0
	jeq     L1AAE
;
; fade_to_black();
;
	.dbg	line, "main.c", 604
L1A68:	jsr     _fade_to_black
;
; go_to_state(STATE_MENU);
;
	.dbg	line, "main.c", 605
	lda     #$02
	jsr     _go_to_state
;
; fade_from_black();
;
	.dbg	line, "main.c", 606
	jsr     _fade_from_black
;
; break;
;
	.dbg	line, "main.c", 608
	jmp     L1AAE
;
; draw_menu_sprites();
;
	.dbg	line, "main.c", 612
L0D0F:	jsr     _draw_menu_sprites
;
; if (tick_count % 128 == 0)
;
	.dbg	line, "main.c", 614
	lda     _tick_count
	and     #$7F
	bne     L1A69
;
; multi_vram_buffer_horz(text_push_start, sizeof(text_push_start) - 1, get_ppu_addr(0, 12 << 3, 12 << 3));
;
	.dbg	line, "main.c", 637
	jsr     decsp3
	lda     #<(_text_push_start)
	ldy     #$01
	sta     (sp),y
	iny
	lda     #>(_text_push_start)
;
; else if (tick_count % 128 == 96)
;
	.dbg	line, "main.c", 640
	jmp     L1AC8
L1A69:	lda     _tick_count
	and     #$7F
	cmp     #$60
	bne     L1A6A
;
; multi_vram_buffer_horz(clear_push_start, sizeof(clear_push_start) - 1, get_ppu_addr(0, 12 << 3, 12 << 3));
;
	.dbg	line, "main.c", 645
	jsr     decsp3
	lda     #<(_clear_push_start)
	ldy     #$01
	sta     (sp),y
	iny
	lda     #>(_clear_push_start)
L1AC8:	sta     (sp),y
	lda     #$0A
	ldy     #$00
	sta     (sp),y
	jsr     decsp2
	tya
	iny
	sta     (sp),y
	lda     #$60
	dey
	sta     (sp),y
	jsr     _get_ppu_addr
	jsr     _multi_vram_buffer_horz
;
; if (pad_all_new != 0)
;
	.dbg	line, "main.c", 650
L1A6A:	lda     _pad_all_new
	beq     L1A6D
;
; if (pad_all_new & konami_code[cur_konami_index])
;
	.dbg	line, "main.c", 652
	ldy     _cur_konami_index
	lda     _konami_code,y
	and     _pad_all_new
	pha
	pla
	beq     L1A6C
;
; ++cur_konami_index;
;
	.dbg	line, "main.c", 654
	inc     _cur_konami_index
;
; else
;
	.dbg	line, "main.c", 656
	jmp     L1A6D
;
; cur_konami_index = 0;
;
	.dbg	line, "main.c", 658
L1A6C:	sta     _cur_konami_index
;
; if (pad_all_new & PAD_START)
;
	.dbg	line, "main.c", 674
L1A6D:	lda     _pad_all_new
	and     #$10
	jeq     L1AAE
;
; srand(tick_count_large);
;
	.dbg	line, "main.c", 677
	lda     _tick_count_large
	ldx     _tick_count_large+1
	jsr     _srand
;
; if (cur_konami_index >= KONAMI_CODE_LEN)
;
	.dbg	line, "main.c", 680
	lda     _cur_konami_index
	cmp     #$0B
	bcc     L0D36
;
; SFX_PLAY_WRAPPER(SOUND_LEVELUP_MULTI);
;
	.dbg	line, "main.c", 682
	lda     _sfx_on
	beq     L0D38
	lda     #$08
	jsr     pusha
	lda     #$00
	jsr     _sfx_play
;
; music_stop();
;
	.dbg	line, "main.c", 683
L0D38:	jsr     _music_stop
;
; go_to_state(STATE_SOUND_TEST);
;
	.dbg	line, "main.c", 684
	lda     #$07
;
; else
;
	.dbg	line, "main.c", 686
	jmp     L1A5C
;
; fade_to_black();
;
	.dbg	line, "main.c", 689
L0D36:	jsr     _fade_to_black
;
; go_to_state(STATE_OPTIONS);
;
	.dbg	line, "main.c", 690
	lda     #$03
	jsr     _go_to_state
;
; fade_from_black();
;
	.dbg	line, "main.c", 691
	jsr     _fade_from_black
;
; break;
;
	.dbg	line, "main.c", 706
	jmp     L1AAE
;
; if (tick_count % 128 == 0)
;
	.dbg	line, "main.c", 899
L1A6E:	lda     _tick_count
	and     #$7F
	bne     L1A6F
;
; multi_vram_buffer_horz(text_push_start, sizeof(text_push_start) - 1, get_ppu_addr(0, 12 << 3, 12 << 3));
;
	.dbg	line, "main.c", 901
	jsr     decsp3
	lda     #<(_text_push_start)
	ldy     #$01
	sta     (sp),y
	iny
	lda     #>(_text_push_start)
;
; else if (tick_count % 128 == 96)
;
	.dbg	line, "main.c", 903
	jmp     L1AC9
L1A6F:	lda     _tick_count
	and     #$7F
	cmp     #$60
	bne     L1A70
;
; multi_vram_buffer_horz(clear_push_start, sizeof(clear_push_start) - 1, get_ppu_addr(0, 12 << 3, 12 << 3));
;
	.dbg	line, "main.c", 905
	jsr     decsp3
	lda     #<(_clear_push_start)
	ldy     #$01
	sta     (sp),y
	iny
	lda     #>(_clear_push_start)
L1AC9:	sta     (sp),y
	lda     #$0A
	ldy     #$00
	sta     (sp),y
	jsr     decsp2
	tya
	iny
	sta     (sp),y
	lda     #$60
	dey
	sta     (sp),y
	jsr     _get_ppu_addr
	jsr     _multi_vram_buffer_horz
;
; if (pad_all_new & PAD_START)
;
	.dbg	line, "main.c", 908
L1A70:	lda     _pad_all_new
	and     #$10
	beq     L1A74
;
; music_stop();
;
	.dbg	line, "main.c", 910
	jsr     _music_stop
;
; SFX_PLAY_WRAPPER(SOUND_START);
;
	.dbg	line, "main.c", 911
	lda     _sfx_on
	beq     L0D62
	lda     #$05
	jsr     pusha
	lda     #$00
	jsr     _sfx_play
;
; fade_to_black();
;
	.dbg	line, "main.c", 913
L0D62:	jsr     _fade_to_black
;
; ppu_off();
;
	.dbg	line, "main.c", 914
	jsr     _ppu_off
;
; vram_adr(NTADR_A(0, 0));
;
	.dbg	line, "main.c", 915
	ldx     #$20
	lda     #$00
	jsr     _vram_adr
;
; vram_unrle(title_screen);
;
	.dbg	line, "main.c", 916
	lda     #<(_title_screen)
	ldx     #>(_title_screen)
	jsr     _vram_unrle
;
; ppu_on_all();
;
	.dbg	line, "main.c", 917
	jsr     _ppu_on_all
;
; fade_from_black();
;
	.dbg	line, "main.c", 918
	jsr     _fade_from_black
;
; if (cur_level == 9 && pad_all & PAD_SELECT)
;
	.dbg	line, "main.c", 921
	lda     _cur_level
	cmp     #$09
	bne     L1A73
	lda     _pad_all
	and     #$20
	beq     L1A73
;
; cur_level = 29;
;
	.dbg	line, "main.c", 923
	lda     #$1D
;
; else if (pad_all & PAD_A)
;
	.dbg	line, "main.c", 925
	jmp     L1A5E
L1A73:	lda     _pad_all
	and     #$80
	beq     L0D7C
;
; cur_level += 10;
;
	.dbg	line, "main.c", 927
	lda     #$0A
	clc
	adc     _cur_level
L1A5E:	sta     _cur_level
;
; go_to_state(STATE_GAME);
;
	.dbg	line, "main.c", 929
L0D7C:	lda     #$04
	jsr     _go_to_state
;
; if (pad_all_new & PAD_B)
;
	.dbg	line, "main.c", 932
L1A74:	lda     _pad_all_new
	and     #$40
	beq     L1A75
;
; fade_to_black();
;
	.dbg	line, "main.c", 934
	jsr     _fade_to_black
;
; go_to_state(STATE_MENU);
;
	.dbg	line, "main.c", 935
	lda     #$02
	jsr     _go_to_state
;
; fade_from_black();
;
	.dbg	line, "main.c", 936
	jsr     _fade_from_black
;
; else if (pad_all_new & PAD_RIGHT)
;
	.dbg	line, "main.c", 938
	jmp     L1AAE
L1A75:	lda     _pad_all_new
	and     #$01
	jeq     L1A7D
;
; switch (cur_option)
;
	.dbg	line, "main.c", 940
	lda     _cur_option
;
; }
;
	.dbg	line, "main.c", 1006
	beq     L1A76
	cmp     #$01
	beq     L1A78
	cmp     #$02
	beq     L1A79
	cmp     #$03
	beq     L1A7B
	cmp     #$04
	beq     L1A7C
	jmp     L0D8D
;
; if (cur_level < 9)
;
	.dbg	line, "main.c", 945
L1A76:	lda     _cur_level
	cmp     #$09
	bcs     L1A77
;
; ++cur_level;
;
	.dbg	line, "main.c", 947
	inc     _cur_level
;
; else
;
	.dbg	line, "main.c", 949
	jmp     L0D8D
;
; cur_level = 0;
;
	.dbg	line, "main.c", 951
L1A77:	lda     #$00
	sta     _cur_level
;
; break;
;
	.dbg	line, "main.c", 953
	jmp     L0D8D
;
; if (attack_style < ATTACK_NUM - 1)
;
	.dbg	line, "main.c", 959
L1A78:	lda     _attack_style
	cmp     #$02
	bcs     L0D8D
;
; ++attack_style;
;
	.dbg	line, "main.c", 961
	inc     _attack_style
;
; display_highscore();
;
	.dbg	line, "main.c", 962
	jsr     _display_highscore
;
; break;
;
	.dbg	line, "main.c", 964
	jmp     L0D8D
;
; if (music_on == 0)
;
	.dbg	line, "main.c", 970
L1A79:	lda     _music_on
	bne     L0D8D
;
; music_on = 1;
;
	.dbg	line, "main.c", 972
	lda     #$01
	sta     _music_on
;
; MUSIC_PLAY_ATTRACT_WRAPPER(MUSIC_TITLE);
;
	.dbg	line, "main.c", 973
	lda     _music_on
	beq     L1A7A
	lda     #$00
	jsr     _music_play
;
; music_pause(0);
;
	.dbg	line, "main.c", 974
	lda     #$00
L1A7A:	jsr     _music_pause
;
; break;
;
	.dbg	line, "main.c", 985
	jmp     L0D8D
;
; if (sfx_on == 0)
;
	.dbg	line, "main.c", 989
L1A7B:	lda     _sfx_on
	bne     L0D8D
;
; sfx_on = 1;
;
	.dbg	line, "main.c", 991
	lda     #$01
	sta     _sfx_on
;
; break;
;
	.dbg	line, "main.c", 993
	jmp     L0D8D
;
; if (hard_drops_on < NUM_HARD_DROP_SETTINGS - 1)
;
	.dbg	line, "main.c", 998
L1A7C:	lda     _hard_drops_on
	cmp     #$02
	bcs     L0D8D
;
; ++hard_drops_on;
;
	.dbg	line, "main.c", 1000
	inc     _hard_drops_on
;
; SFX_PLAY_WRAPPER(SOUND_MENU_HIGH);
;
	.dbg	line, "main.c", 1008
L0D8D:	lda     _sfx_on
	beq     L0DB5
	lda     #$0A
	jsr     pusha
	lda     #$00
	jsr     _sfx_play
;
; display_options();
;
	.dbg	line, "main.c", 1009
L0DB5:	jsr     _display_options
;
; else if (pad_all_new & PAD_LEFT)
;
	.dbg	line, "main.c", 1011
	jmp     L1AAE
L1A7D:	lda     _pad_all_new
	and     #$02
	beq     L1A84
;
; switch (cur_option)
;
	.dbg	line, "main.c", 1013
	lda     _cur_option
;
; }
;
	.dbg	line, "main.c", 1087
	beq     L1A7E
	cmp     #$01
	beq     L1A80
	cmp     #$02
	beq     L1A81
	cmp     #$03
	beq     L1A82
	cmp     #$04
	beq     L1A83
	jmp     L0DC1
;
; if (cur_level != 0)
;
	.dbg	line, "main.c", 1018
L1A7E:	lda     _cur_level
	beq     L1A7F
;
; --cur_level;
;
	.dbg	line, "main.c", 1020
	dec     _cur_level
;
; else
;
	.dbg	line, "main.c", 1022
	jmp     L0DC1
;
; cur_level = 9;
;
	.dbg	line, "main.c", 1024
L1A7F:	lda     #$09
	sta     _cur_level
;
; break;
;
	.dbg	line, "main.c", 1026
	jmp     L0DC1
;
; if (attack_style != 0)
;
	.dbg	line, "main.c", 1035
L1A80:	lda     _attack_style
	beq     L0DC1
;
; --attack_style;
;
	.dbg	line, "main.c", 1037
	dec     _attack_style
;
; display_highscore();
;
	.dbg	line, "main.c", 1038
	jsr     _display_highscore
;
; break;
;
	.dbg	line, "main.c", 1041
	jmp     L0DC1
;
; if (music_on != 0)
;
	.dbg	line, "main.c", 1050
L1A81:	lda     _music_on
	beq     L0DC1
;
; music_on = 0;
;
	.dbg	line, "main.c", 1052
	lda     #$00
	sta     _music_on
;
; music_pause(1);
;
	.dbg	line, "main.c", 1053
	lda     #$01
	jsr     _music_pause
;
; music_stop();
;
	.dbg	line, "main.c", 1054
	jsr     _music_stop
;
; break;
;
	.dbg	line, "main.c", 1066
	jmp     L0DC1
;
; if (sfx_on != 0)
;
	.dbg	line, "main.c", 1070
L1A82:	lda     _sfx_on
	beq     L0DC1
;
; sfx_on = 0;
;
	.dbg	line, "main.c", 1072
	lda     #$00
	sta     _sfx_on
;
; break;
;
	.dbg	line, "main.c", 1074
	jmp     L0DC1
;
; if (hard_drops_on != 0)
;
	.dbg	line, "main.c", 1078
L1A83:	lda     _hard_drops_on
	beq     L0DC1
;
; --hard_drops_on;
;
	.dbg	line, "main.c", 1080
	dec     _hard_drops_on
;
; SFX_PLAY_WRAPPER(SOUND_MENU_LOW);
;
	.dbg	line, "main.c", 1089
L0DC1:	lda     _sfx_on
	beq     L0DE5
	lda     #$0B
	jsr     pusha
	lda     #$00
	jsr     _sfx_play
;
; display_options();
;
	.dbg	line, "main.c", 1090
L0DE5:	jsr     _display_options
;
; else if (pad_all_new & PAD_DOWN)
;
	.dbg	line, "main.c", 1092
	jmp     L1AAE
L1A84:	lda     _pad_all_new
	and     #$04
	beq     L1A85
;
; cur_option = (cur_option + 1) % NUM_OPTIONS;
;
	.dbg	line, "main.c", 1094
	ldx     #$00
	lda     _cur_option
	clc
	adc     #$01
	bcc     L0DF2
	inx
L0DF2:	jsr     pushax
	lda     #$05
	jsr     tosumoda0
	sta     _cur_option
;
; SFX_PLAY_WRAPPER(SOUND_MENU_LOW);
;
	.dbg	line, "main.c", 1095
	lda     _sfx_on
	beq     L0DF3
	lda     #$0B
	jsr     pusha
	lda     #$00
	jsr     _sfx_play
;
; display_options();
;
	.dbg	line, "main.c", 1096
L0DF3:	jsr     _display_options
;
; else if (pad_all_new & PAD_UP)
;
	.dbg	line, "main.c", 1098
	jmp     L1AAE
L1A85:	lda     _pad_all_new
	ldx     #$00
	and     #$08
	jeq     L1AAE
;
; if (cur_option == 0)
;
	.dbg	line, "main.c", 1100
	lda     _cur_option
	bne     L1A86
;
; cur_option = NUM_OPTIONS;
;
	.dbg	line, "main.c", 1102
	lda     #$05
	sta     _cur_option
;
; cur_option = (cur_option - 1) % NUM_OPTIONS;
;
	.dbg	line, "main.c", 1104
L1A86:	lda     _cur_option
	sec
	sbc     #$01
	bcs     L0E04
	dex
L0E04:	jsr     pushax
	lda     #$05
	jsr     tosumoda0
	sta     _cur_option
;
; SFX_PLAY_WRAPPER(SOUND_MENU_HIGH);
;
	.dbg	line, "main.c", 1105
	lda     _sfx_on
	beq     L0E05
	lda     #$0A
	jsr     pusha
	lda     #$00
	jsr     _sfx_play
;
; display_options();
;
	.dbg	line, "main.c", 1106
L0E05:	jsr     _display_options
;
; break;
;
	.dbg	line, "main.c", 1109
	jmp     L1AAE
;
; if (hit_reaction_remaining > 0)
;
	.dbg	line, "main.c", 1114
L1A87:	lda     _hit_reaction_remaining
	beq     L1A88
;
; --hit_reaction_remaining;
;
	.dbg	line, "main.c", 1116
	dec     _hit_reaction_remaining
;
; if (row_to_clear >= 0)
;
	.dbg	line, "main.c", 1119
L1A88:	ldx     _row_to_clear
	bmi     L1A89
;
; --attack_row_status[row_to_clear];
;
	.dbg	line, "main.c", 1122
	lda     #<(_attack_row_status)
	ldx     #>(_attack_row_status)
	clc
	adc     _row_to_clear
	bcc     L0E17
	inx
L0E17:	sta     ptr1
	stx     ptr1+1
	ldy     #$00
	lda     (ptr1),y
	sec
	sbc     #$01
	sta     (ptr1),y
;
; if (attack_row_status[row_to_clear] == 0)
;
	.dbg	line, "main.c", 1123
	ldy     _row_to_clear
	lda     _attack_row_status,y
	bne     L1A89
;
; row_to_clear = -1;
;
	.dbg	line, "main.c", 1125
	lda     #$FF
	sta     _row_to_clear
;
; if (attack_style != ATTACK_NEVER && attack_queued)
;
	.dbg	line, "main.c", 1130
L1A89:	lda     _attack_style
	cmp     #$02
	beq     L0E1F
	lda     _attack_queued
	beq     L0E1F
;
; add_block_at_bottom();
;
	.dbg	line, "main.c", 1134
	jsr     _add_block_at_bottom
;
; clear_rows_in_data(BOARD_END_Y_PX_BOARD);
;
	.dbg	line, "main.c", 1136
	lda     #$17
	jsr     _clear_rows_in_data
;
; attack_queued = 0;
;
	.dbg	line, "main.c", 1137
	lda     #$00
	sta     _attack_queued
;
; attack_queue_ticks_remaining = attack_delay;
;
	.dbg	line, "main.c", 1138
	lda     _attack_delay+1
	sta     _attack_queue_ticks_remaining+1
	lda     _attack_delay
	sta     _attack_queue_ticks_remaining
;
; if (kill_row_queued)
;
	.dbg	line, "main.c", 1141
L0E1F:	lda     _kill_row_queued
	beq     L1A8C
;
; add_row_at_bottom();
;
	.dbg	line, "main.c", 1143
	jsr     _add_row_at_bottom
;
; kill_row_queued = 0;
;
	.dbg	line, "main.c", 1144
	lda     #$00
	sta     _kill_row_queued
;
; if (delay_spawn_remaining != -1)
;
	.dbg	line, "main.c", 1149
L1A8C:	lda     _delay_spawn_remaining
	cmp     #$FF
	beq     L0E2F
;
; if (horz_button_delay > 0)
;
	.dbg	line, "main.c", 1153
	lda     _horz_button_delay
	beq     L1A8D
;
; --horz_button_delay;
;
	.dbg	line, "main.c", 1155
	dec     _horz_button_delay
;
; --delay_spawn_remaining;
;
	.dbg	line, "main.c", 1157
L1A8D:	dec     _delay_spawn_remaining
;
; if (delay_spawn_remaining == 0)
;
	.dbg	line, "main.c", 1158
	bne     L0E3D
;
; spawn_new_cluster();
;
	.dbg	line, "main.c", 1160
	jsr     _spawn_new_cluster
;
; delay_lock_remaining = -1;
;
	.dbg	line, "main.c", 1161
	lda     #$FF
	sta     _delay_lock_remaining
;
; else
;
	.dbg	line, "main.c", 1164
	jmp     L0E3D
;
; movement();
;
	.dbg	line, "main.c", 1166
L0E2F:	jsr     _movement
;
; draw_gameplay_sprites();
;
	.dbg	line, "main.c", 1171
L0E3D:	jsr     _draw_gameplay_sprites
;
; if (attack_style == ATTACK_ON_TIME && attack_queue_ticks_remaining != 0)
;
	.dbg	line, "main.c", 1175
	lda     _attack_style
	cmp     #$01
	bne     L0E47
	lda     _attack_queue_ticks_remaining
	ora     _attack_queue_ticks_remaining+1
	beq     L1AB3
;
; --attack_queue_ticks_remaining;
;
	.dbg	line, "main.c", 1177
	lda     _attack_queue_ticks_remaining
	sec
	sbc     #$01
	sta     _attack_queue_ticks_remaining
	bcs     L0E46
	dec     _attack_queue_ticks_remaining+1
;
; if (attack_queue_ticks_remaining == 0)
;
	.dbg	line, "main.c", 1179
L0E46:	lda     _attack_queue_ticks_remaining
	ora     _attack_queue_ticks_remaining+1
	bne     L0E47
;
; attack_queued = 1;
;
	.dbg	line, "main.c", 1181
	lda     #$01
	sta     _attack_queued
;
; attack_queue_ticks_remaining = attack_delay;
;
	.dbg	line, "main.c", 1182
	lda     _attack_delay+1
	sta     _attack_queue_ticks_remaining+1
	lda     _attack_delay
	sta     _attack_queue_ticks_remaining
;
; local_t = 0;
;
	.dbg	line, "main.c", 1192
L0E47:	lda     #$00
L1AB3:	sta     _local_t
	sta     _local_t+1
;
; for (local_iy = 0; local_iy < STRESS_MUSIC_LEVEL * 10; ++local_iy)
;
	.dbg	line, "main.c", 1193
	sta     _local_iy
L1A93:	lda     _local_iy
	cmp     #$46
	bcs     L0E51
;
; if (game_board[local_iy + ((BOARD_OOB_END + 1) * 10)] != 0)
;
	.dbg	line, "main.c", 1195
	ldx     #$00
	lda     _local_iy
	clc
	adc     #$28
	bcc     L0E5D
	inx
L0E5D:	sta     ptr1
	txa
	clc
	adc     #>(_game_board)
	sta     ptr1+1
	ldy     #<(_game_board)
	lda     (ptr1),y
	beq     L1A94
;
; local_t = 1;
;
	.dbg	line, "main.c", 1198
	ldx     #$00
	lda     #$01
	sta     _local_t
	stx     _local_t+1
;
; if (cur_gameplay_music == MUSIC_GAMEPLAY)
;
	.dbg	line, "main.c", 1200
	lda     _cur_gameplay_music
	cmp     #$01
	bne     L1A94
;
; cur_gameplay_music = MUSIC_STRESS;
;
	.dbg	line, "main.c", 1202
	lda     #$02
	sta     _cur_gameplay_music
;
; MUSIC_PLAY_WRAPPER(MUSIC_STRESS);
;
	.dbg	line, "main.c", 1203
	lda     _music_on
	beq     L0E51
	lda     #$02
	jsr     _music_play
;
; break;
;
	.dbg	line, "main.c", 1204
	jmp     L0E51
;
; for (local_iy = 0; local_iy < STRESS_MUSIC_LEVEL * 10; ++local_iy)
;
	.dbg	line, "main.c", 1193
L1A94:	inc     _local_iy
	jmp     L1A93
;
; if (local_t == 0 && cur_gameplay_music == MUSIC_STRESS)
;
	.dbg	line, "main.c", 1209
L0E51:	lda     _local_t
	ora     _local_t+1
	bne     L1A96
	lda     _cur_gameplay_music
	cmp     #$02
	bne     L1A96
;
; cur_gameplay_music = MUSIC_GAMEPLAY;
;
	.dbg	line, "main.c", 1211
	lda     #$01
	sta     _cur_gameplay_music
;
; MUSIC_PLAY_WRAPPER(MUSIC_GAMEPLAY);
;
	.dbg	line, "main.c", 1212
	lda     _music_on
	beq     L1A96
	lda     #$01
	jsr     _music_play
;
; if (pad_all_new & PAD_START)
;
	.dbg	line, "main.c", 1218
L1A96:	lda     _pad_all_new
	and     #$10
	jeq     L1AAE
;
; go_to_state(STATE_PAUSE);
;
	.dbg	line, "main.c", 1220
	lda     #$05
;
; break;
;
	.dbg	line, "main.c", 1241
	jmp     L1A5C
;
; oam_clear();
;
	.dbg	line, "main.c", 1247
L0E7A:	jsr     _oam_clear
;
; if (pad_all_new & PAD_START)
;
	.dbg	line, "main.c", 1258
	lda     _pad_all_new
	and     #$10
	jeq     L1AAE
;
; go_to_state(STATE_GAME);
;
	.dbg	line, "main.c", 1260
	lda     #$04
;
; break;
;
	.dbg	line, "main.c", 1262
	jmp     L1A5C
;
; if (pad_all_new & PAD_B)
;
	.dbg	line, "main.c", 1277
L1A97:	lda     _pad_all_new
	and     #$40
	beq     L1A98
;
; go_to_state(STATE_MENU);
;
	.dbg	line, "main.c", 1280
	lda     #$02
	jsr     _go_to_state
;
; if (pad_all_new & PAD_A)
;
	.dbg	line, "main.c", 1282
L1A98:	lda     _pad_all_new
	and     #$80
	jeq     L1AAE
;
; go_to_state(STATE_GAME);
;
	.dbg	line, "main.c", 1285
	lda     #$04
;
; break;
;
	.dbg	line, "main.c", 1289
	jmp     L1A5C
;
; if (pad_all_new & PAD_DOWN && test_song < 15)
;
	.dbg	line, "main.c", 1298
L1A99:	lda     _pad_all_new
	and     #$04
	beq     L1A9D
	lda     _test_song
	cmp     #$0F
	bcs     L1A9D
;
; ++test_song;
;
	.dbg	line, "main.c", 1300
	inc     _test_song
;
; else if (pad_all_new & PAD_UP && test_song > 0)
;
	.dbg	line, "main.c", 1303
	jmp     L1A5F
L1A9D:	lda     _pad_all_new
	and     #$08
	beq     L1AA1
	lda     _test_song
	beq     L1AA1
;
; --test_song;
;
	.dbg	line, "main.c", 1305
	dec     _test_song
;
; display_song();
;
	.dbg	line, "main.c", 1306
L1A5F:	jsr     _display_song
;
; if (pad_all_new & PAD_B)
;
	.dbg	line, "main.c", 1309
L1AA1:	lda     _pad_all_new
	and     #$40
	beq     L1AA3
;
; if (test_song == test_song_active)
;
	.dbg	line, "main.c", 1311
	lda     _test_song_active
	cmp     _test_song
	bne     L1AA2
;
; test_song_active = 0xff;
;
	.dbg	line, "main.c", 1313
	lda     #$FF
	sta     _test_song_active
;
; music_stop();
;
	.dbg	line, "main.c", 1314
	jsr     _music_stop
;
; else
;
	.dbg	line, "main.c", 1316
	jmp     L1AA3
;
; test_song_active = test_song;
;
	.dbg	line, "main.c", 1318
L1AA2:	lda     _test_song
	sta     _test_song_active
;
; music_play(test_song);
;
	.dbg	line, "main.c", 1320
	lda     _test_song
	jsr     _music_play
;
; if (pad_all_new & PAD_RIGHT && test_sound < 31)
;
	.dbg	line, "main.c", 1327
L1AA3:	lda     _pad_all_new
	and     #$01
	beq     L1AA7
	lda     _test_sound
	cmp     #$1F
	bcs     L1AA7
;
; ++test_sound;
;
	.dbg	line, "main.c", 1329
	inc     _test_sound
;
; else if (pad_all_new & PAD_LEFT && test_sound > 0)
;
	.dbg	line, "main.c", 1332
	jmp     L1A60
L1AA7:	lda     _pad_all_new
	and     #$02
	beq     L1AAB
	lda     _test_sound
	beq     L1AAB
;
; --test_sound;
;
	.dbg	line, "main.c", 1334
	dec     _test_sound
;
; display_sound();
;
	.dbg	line, "main.c", 1335
L1A60:	jsr     _display_sound
;
; if (pad_all_new & PAD_A)
;
	.dbg	line, "main.c", 1338
L1AAB:	lda     _pad_all_new
	and     #$80
	beq     L1AAC
;
; sfx_play(test_sound, 0);
;
	.dbg	line, "main.c", 1341
	lda     _test_sound
	jsr     pusha
	lda     #$00
	jsr     _sfx_play
;
; if (pad_all_new & PAD_SELECT || pad_all_new & PAD_START)
;
	.dbg	line, "main.c", 1347
L1AAC:	lda     _pad_all_new
	and     #$20
	bne     L1AAD
	lda     _pad_all_new
	and     #$10
	beq     L1AAE
;
; go_to_state(STATE_MENU);
;
	.dbg	line, "main.c", 1349
L1AAD:	lda     #$02
L1A5C:	jsr     _go_to_state
;
; if (screen_shake_remaining > 0)
;
	.dbg	line, "main.c", 1536
L1AAE:	lda     _screen_shake_remaining
	beq     L1AB0
;
; --screen_shake_remaining;
;
	.dbg	line, "main.c", 1538
	dec     _screen_shake_remaining
;
; scroll((rand() % 2), scroll_y - (rand() % 2));
;
	.dbg	line, "main.c", 1539
	jsr     _rand
	jsr     pushax
	ldx     #$00
	lda     #$02
	jsr     tosmoda0
	jsr     pushax
	lda     _scroll_y
	ldx     _scroll_y+1
	jsr     pushax
	jsr     _rand
	jsr     pushax
	ldx     #$00
	lda     #$02
	jsr     tosmoda0
	jsr     tossubax
	jsr     _scroll
;
; else
;
	.dbg	line, "main.c", 1541
	jmp     L0CD4
;
; scroll(0, scroll_y); // shift the bg down 1 pixel
;
	.dbg	line, "main.c", 1543
L1AB0:	jsr     push0
	lda     _scroll_y
	ldx     _scroll_y+1
	jsr     _scroll
;
; while (1)
;
	.dbg	line, "main.c", 446
	jmp     L0CD4
	.dbg	line

.endproc

; ---------------------------------------------------------------
; unsigned char __near__ is_block_full (unsigned char, unsigned char)
; ---------------------------------------------------------------

.segment	"CODE"

.proc	_is_block_full: near

	.dbg	func, "is_block_full", "00", extern, "_is_block_full"
	.dbg	sym, "x", "00", auto, 1
	.dbg	sym, "y", "00", auto, 0

.segment	"CODE"

;
; {
;
	.dbg	line, "main.c", 2215
	jsr     pusha
;
; if (y > BOARD_END_Y_PX_BOARD || x > BOARD_END_X_PX_BOARD)
;
	.dbg	line, "main.c", 2217
	ldy     #$00
	lda     (sp),y
	cmp     #$18
	bcs     L1ACB
	iny
	lda     (sp),y
	cmp     #$0A
	bcc     L113F
;
; return 1;
;
	.dbg	line, "main.c", 2220
L1ACB:	ldx     #$00
	lda     #$01
	jmp     incsp2
;
; if (game_board[TILE_TO_BOARD_INDEX(x, y)]) // != 5 && game_board[TILE_TO_BOARD_INDEX(x,y)] != 0)
;
	.dbg	line, "main.c", 2224
L113F:	dey
	lda     (sp),y
	tay
	lda     _board_lookup_y,y
	sta     ptr1
	ldx     #$00
	ldy     #$01
	lda     (sp),y
	clc
	adc     ptr1
	bcc     L1ACA
	inx
L1ACA:	sta     ptr1
	txa
	clc
	adc     #>(_game_board)
	sta     ptr1+1
	ldy     #<(_game_board)
	ldx     #$00
	lda     (ptr1),y
	beq     L113E
;
; return 1;
;
	.dbg	line, "main.c", 2226
	lda     #$01
	jmp     incsp2
;
; }
;
	.dbg	line, "main.c", 2229
L113E:	jmp     incsp2
	.dbg	line

.endproc

